; Listing generated by Microsoft (R) Optimizing Compiler Version 19.00.24215.1 

	TITLE	C:\Windows\fastgh3\PLUGINS\CODE\gh3\QbStruct.cpp
	.686P
	.XMM
	include listing.inc
	.model	flat

INCLUDELIB LIBCMTD
INCLUDELIB OLDNAMES

CONST	SEGMENT
?tab@crc32@GH3@@3QBIB DD 00H				; GH3::crc32::tab
	DD	077073096H
	DD	0ee0e612cH
	DD	0990951baH
	DD	076dc419H
	DD	0706af48fH
	DD	0e963a535H
	DD	09e6495a3H
	DD	0edb8832H
	DD	079dcb8a4H
	DD	0e0d5e91eH
	DD	097d2d988H
	DD	09b64c2bH
	DD	07eb17cbdH
	DD	0e7b82d07H
	DD	090bf1d91H
	DD	01db71064H
	DD	06ab020f2H
	DD	0f3b97148H
	DD	084be41deH
	DD	01adad47dH
	DD	06ddde4ebH
	DD	0f4d4b551H
	DD	083d385c7H
	DD	0136c9856H
	DD	0646ba8c0H
	DD	0fd62f97aH
	DD	08a65c9ecH
	DD	014015c4fH
	DD	063066cd9H
	DD	0fa0f3d63H
	DD	08d080df5H
	DD	03b6e20c8H
	DD	04c69105eH
	DD	0d56041e4H
	DD	0a2677172H
	DD	03c03e4d1H
	DD	04b04d447H
	DD	0d20d85fdH
	DD	0a50ab56bH
	DD	035b5a8faH
	DD	042b2986cH
	DD	0dbbbc9d6H
	DD	0acbcf940H
	DD	032d86ce3H
	DD	045df5c75H
	DD	0dcd60dcfH
	DD	0abd13d59H
	DD	026d930acH
	DD	051de003aH
	DD	0c8d75180H
	DD	0bfd06116H
	DD	021b4f4b5H
	DD	056b3c423H
	DD	0cfba9599H
	DD	0b8bda50fH
	DD	02802b89eH
	DD	05f058808H
	DD	0c60cd9b2H
	DD	0b10be924H
	DD	02f6f7c87H
	DD	058684c11H
	DD	0c1611dabH
	DD	0b6662d3dH
	DD	076dc4190H
	DD	01db7106H
	DD	098d220bcH
	DD	0efd5102aH
	DD	071b18589H
	DD	06b6b51fH
	DD	09fbfe4a5H
	DD	0e8b8d433H
	DD	07807c9a2H
	DD	0f00f934H
	DD	09609a88eH
	DD	0e10e9818H
	DD	07f6a0dbbH
	DD	086d3d2dH
	DD	091646c97H
	DD	0e6635c01H
	DD	06b6b51f4H
	DD	01c6c6162H
	DD	0856530d8H
	DD	0f262004eH
	DD	06c0695edH
	DD	01b01a57bH
	DD	08208f4c1H
	DD	0f50fc457H
	DD	065b0d9c6H
	DD	012b7e950H
	DD	08bbeb8eaH
	DD	0fcb9887cH
	DD	062dd1ddfH
	DD	015da2d49H
	DD	08cd37cf3H
	DD	0fbd44c65H
	DD	04db26158H
	DD	03ab551ceH
	DD	0a3bc0074H
	DD	0d4bb30e2H
	DD	04adfa541H
	DD	03dd895d7H
	DD	0a4d1c46dH
	DD	0d3d6f4fbH
	DD	04369e96aH
	DD	0346ed9fcH
	DD	0ad678846H
	DD	0da60b8d0H
	DD	044042d73H
	DD	033031de5H
	DD	0aa0a4c5fH
	DD	0dd0d7cc9H
	DD	05005713cH
	DD	0270241aaH
	DD	0be0b1010H
	DD	0c90c2086H
	DD	05768b525H
	DD	0206f85b3H
	DD	0b966d409H
	DD	0ce61e49fH
	DD	05edef90eH
	DD	029d9c998H
	DD	0b0d09822H
	DD	0c7d7a8b4H
	DD	059b33d17H
	DD	02eb40d81H
	DD	0b7bd5c3bH
	DD	0c0ba6cadH
	DD	0edb88320H
	DD	09abfb3b6H
	DD	03b6e20cH
	DD	074b1d29aH
	DD	0ead54739H
	DD	09dd277afH
	DD	04db2615H
	DD	073dc1683H
	DD	0e3630b12H
	DD	094643b84H
	DD	0d6d6a3eH
	DD	07a6a5aa8H
	DD	0e40ecf0bH
	DD	09309ff9dH
	DD	0a00ae27H
	DD	07d079eb1H
	DD	0f00f9344H
	DD	08708a3d2H
	DD	01e01f268H
	DD	06906c2feH
	DD	0f762575dH
	DD	0806567cbH
	DD	0196c3671H
	DD	06e6b06e7H
	DD	0fed41b76H
	DD	089d32be0H
	DD	010da7a5aH
	DD	067dd4accH
	DD	0f9b9df6fH
	DD	08ebeeff9H
	DD	017b7be43H
	DD	060b08ed5H
	DD	0d6d6a3e8H
	DD	0a1d1937eH
	DD	038d8c2c4H
	DD	04fdff252H
	DD	0d1bb67f1H
	DD	0a6bc5767H
	DD	03fb506ddH
	DD	048b2364bH
	DD	0d80d2bdaH
	DD	0af0a1b4cH
	DD	036034af6H
	DD	041047a60H
	DD	0df60efc3H
	DD	0a867df55H
	DD	0316e8eefH
	DD	04669be79H
	DD	0cb61b38cH
	DD	0bc66831aH
	DD	0256fd2a0H
	DD	05268e236H
	DD	0cc0c7795H
	DD	0bb0b4703H
	DD	0220216b9H
	DD	05505262fH
	DD	0c5ba3bbeH
	DD	0b2bd0b28H
	DD	02bb45a92H
	DD	05cb36a04H
	DD	0c2d7ffa7H
	DD	0b5d0cf31H
	DD	02cd99e8bH
	DD	05bdeae1dH
	DD	09b64c2b0H
	DD	0ec63f226H
	DD	0756aa39cH
	DD	026d930aH
	DD	09c0906a9H
	DD	0eb0e363fH
	DD	072076785H
	DD	05005713H
	DD	095bf4a82H
	DD	0e2b87a14H
	DD	07bb12baeH
	DD	0cb61b38H
	DD	092d28e9bH
	DD	0e5d5be0dH
	DD	07cdcefb7H
	DD	0bdbdf21H
	DD	086d3d2d4H
	DD	0f1d4e242H
	DD	068ddb3f8H
	DD	01fda836eH
	DD	081be16cdH
	DD	0f6b9265bH
	DD	06fb077e1H
	DD	018b74777H
	DD	088085ae6H
	DD	0ff0f6a70H
	DD	066063bcaH
	DD	011010b5cH
	DD	08f659effH
	DD	0f862ae69H
	DD	0616bffd3H
	DD	0166ccf45H
	DD	0a00ae278H
	DD	0d70dd2eeH
	DD	04e048354H
	DD	03903b3c2H
	DD	0a7672661H
	DD	0d06016f7H
	DD	04969474dH
	DD	03e6e77dbH
	DD	0aed16a4aH
	DD	0d9d65adcH
	DD	040df0b66H
	DD	037d83bf0H
	DD	0a9bcae53H
	DD	0debb9ec5H
	DD	047b2cf7fH
	DD	030b5ffe9H
	DD	0bdbdf21cH
	DD	0cabac28aH
	DD	053b39330H
	DD	024b4a3a6H
	DD	0bad03605H
	DD	0cdd70693H
	DD	054de5729H
	DD	023d967bfH
	DD	0b3667a2eH
	DD	0c4614ab8H
	DD	05d681b02H
	DD	02a6f2b94H
	DD	0b40bbe37H
	DD	0c30c8ea1H
	DD	05a05df1bH
	DD	02d02ef8dH
CONST	ENDS
_DATA	SEGMENT
?qbItemMalloc@GH3@@3P6APAXIH@ZA DD 0437410H		; GH3::qbItemMalloc
?qbMalloc@GH3@@3P6APAXIH@ZA DD 0402370H			; GH3::qbMalloc
_DATA	ENDS
PUBLIC	?fixChar@crc32@GH3@@YADD@Z			; GH3::crc32::fixChar
PUBLIC	?hashChar@crc32@GH3@@YAIDI@Z			; GH3::crc32::hashChar
PUBLIC	?hash@crc32@GH3@@YAIPBDI@Z			; GH3::crc32::hash
PUBLIC	??0QbKey@GH3@@QAE@XZ				; GH3::QbKey::QbKey
PUBLIC	??0QbKey@GH3@@QAE@ABU01@@Z			; GH3::QbKey::QbKey
PUBLIC	??0QbKey@GH3@@QAE@I@Z				; GH3::QbKey::QbKey
PUBLIC	??0QbKey@GH3@@QAE@PBD@Z				; GH3::QbKey::QbKey
PUBLIC	??BQbKey@GH3@@QBEIXZ				; GH3::QbKey::operator unsigned int
PUBLIC	??4QbKey@GH3@@QAEAAU01@I@Z			; GH3::QbKey::operator=
PUBLIC	??4QbKey@GH3@@QAEAAU01@ABU01@@Z			; GH3::QbKey::operator=
PUBLIC	??4QbPair@GH3@@QAEAAU01@ABU01@@Z		; GH3::QbPair::operator=
PUBLIC	??4QbPair@GH3@@QAEAAU01@$$QAU01@@Z		; GH3::QbPair::operator=
PUBLIC	??4QbVector@GH3@@QAEAAU01@ABU01@@Z		; GH3::QbVector::operator=
PUBLIC	??4QbVector@GH3@@QAEAAU01@$$QAU01@@Z		; GH3::QbVector::operator=
PUBLIC	?Set@QbArray@GH3@@QAEXHI@Z			; GH3::QbArray::Set
PUBLIC	?Get@QbArray@GH3@@QBEIH@Z			; GH3::QbArray::Get
PUBLIC	?SetType@QbArray@GH3@@QAEXW4QbValueType@2@@Z	; GH3::QbArray::SetType
PUBLIC	?Type@QbArray@GH3@@QBE?AW4QbValueType@2@XZ	; GH3::QbArray::Type
PUBLIC	?Length@QbArray@GH3@@QBEIXZ			; GH3::QbArray::Length
PUBLIC	??4QbArray@GH3@@QAEAAU01@ABU01@@Z		; GH3::QbArray::operator=
PUBLIC	??4QbArray@GH3@@QAEAAU01@$$QAU01@@Z		; GH3::QbArray::operator=
PUBLIC	?Type@QbStructItem@GH3@@QAE?AW4QbValueType@2@XZ	; GH3::QbStructItem::Type
PUBLIC	??0QbStructItem@GH3@@QAE@W4QbNodeFlags@1@UQbKey@1@I@Z ; GH3::QbStructItem::QbStructItem
PUBLIC	??4QbStructItem@GH3@@QAEAAU01@ABU01@@Z		; GH3::QbStructItem::operator=
PUBLIC	??4QbStructItem@GH3@@QAEAAU01@$$QAU01@@Z	; GH3::QbStructItem::operator=
PUBLIC	??0QbStruct@GH3@@QAE@XZ				; GH3::QbStruct::QbStruct
PUBLIC	??0QbStruct@GH3@@QAE@PAUQbStructItem@1@@Z	; GH3::QbStruct::QbStruct
PUBLIC	??1QbStruct@GH3@@QAE@XZ				; GH3::QbStruct::~QbStruct
PUBLIC	?GetTypedValue@QbStruct@GH3@@QAE_NUQbKey@2@W4QbValueType@2@PAX@Z ; GH3::QbStruct::GetTypedValue
PUBLIC	?GetInt@QbStruct@GH3@@QAE_NUQbKey@2@AAH@Z	; GH3::QbStruct::GetInt
PUBLIC	?GetUInt@QbStruct@GH3@@QAE_NUQbKey@2@AAI@Z	; GH3::QbStruct::GetUInt
PUBLIC	?GetFloat@QbStruct@GH3@@QAE_NUQbKey@2@AAM@Z	; GH3::QbStruct::GetFloat
PUBLIC	?GetDouble@QbStruct@GH3@@QAE_NUQbKey@2@AAN@Z	; GH3::QbStruct::GetDouble
PUBLIC	?GetString@QbStruct@GH3@@QAE_NUQbKey@2@AAPAD@Z	; GH3::QbStruct::GetString
PUBLIC	?GetWString@QbStruct@GH3@@QAE_NUQbKey@2@AAPA_W@Z ; GH3::QbStruct::GetWString
PUBLIC	?GetPair@QbStruct@GH3@@QAE_NUQbKey@2@AAUQbPair@2@@Z ; GH3::QbStruct::GetPair
PUBLIC	?GetVector@QbStruct@GH3@@QAE_NUQbKey@2@AAUQbVector@2@@Z ; GH3::QbStruct::GetVector
PUBLIC	?GetStruct@QbStruct@GH3@@QAE_NUQbKey@2@AAU12@@Z	; GH3::QbStruct::GetStruct
PUBLIC	?GetArray@QbStruct@GH3@@QAE_NUQbKey@2@AAUQbArray@2@@Z ; GH3::QbStruct::GetArray
PUBLIC	?GetQbKey@QbStruct@GH3@@QAE_NUQbKey@2@AAU32@@Z	; GH3::QbStruct::GetQbKey
PUBLIC	?GetItem@QbStruct@GH3@@QAEPAUQbStructItem@2@UQbKey@2@@Z ; GH3::QbStruct::GetItem
PUBLIC	?GetItem@QbStruct@GH3@@QAEPAUQbStructItem@2@UQbKey@2@W4QbValueType@2@@Z ; GH3::QbStruct::GetItem
PUBLIC	?ContainsItem@QbStruct@GH3@@QAE_NUQbKey@2@@Z	; GH3::QbStruct::ContainsItem
PUBLIC	?ContainsItem@QbStruct@GH3@@QAE_NUQbKey@2@W4QbValueType@2@@Z ; GH3::QbStruct::ContainsItem
PUBLIC	?InsertCStringItem@QbStruct@GH3@@QAEXUQbKey@2@PAD@Z ; GH3::QbStruct::InsertCStringItem
PUBLIC	?InsertWStringItem@QbStruct@GH3@@QAEXUQbKey@2@PA_W@Z ; GH3::QbStruct::InsertWStringItem
PUBLIC	?InsertStringPointerItem@QbStruct@GH3@@QAEXUQbKey@2@I@Z ; GH3::QbStruct::InsertStringPointerItem
PUBLIC	?InsertIntItem@QbStruct@GH3@@QAEXUQbKey@2@H@Z	; GH3::QbStruct::InsertIntItem
PUBLIC	?InsertUIntItem@QbStruct@GH3@@QAEXUQbKey@2@I@Z	; GH3::QbStruct::InsertUIntItem
PUBLIC	?InsertFloatItem@QbStruct@GH3@@QAEXUQbKey@2@M@Z	; GH3::QbStruct::InsertFloatItem
PUBLIC	?InsertQbKeyItem@QbStruct@GH3@@QAEXUQbKey@2@0@Z	; GH3::QbStruct::InsertQbKeyItem
PUBLIC	?InsertVectorItem@QbStruct@GH3@@QAEXUQbKey@2@PAUQbVector@2@@Z ; GH3::QbStruct::InsertVectorItem
PUBLIC	?InsertPairItem@QbStruct@GH3@@QAEXUQbKey@2@PAUQbPair@2@@Z ; GH3::QbStruct::InsertPairItem
PUBLIC	?InsertQbArrayItem@QbStruct@GH3@@QAEXUQbKey@2@PAUQbArray@2@@Z ; GH3::QbStruct::InsertQbArrayItem
PUBLIC	?InsertQbStructItem@QbStruct@GH3@@QAEXUQbKey@2@PAU12@@Z ; GH3::QbStruct::InsertQbStructItem
PUBLIC	??4QbStruct@GH3@@QAEAAU01@ABU01@@Z		; GH3::QbStruct::operator=
PUBLIC	?Get@QbMap@GH3@@QBEIUQbKey@2@@Z			; GH3::QbMap::Get
PUBLIC	?Insert@QbMap@GH3@@QAEXUQbKey@2@I@Z		; GH3::QbMap::Insert
PUBLIC	?Size@QbMap@GH3@@QBEIXZ				; GH3::QbMap::Size
PUBLIC	?Type@QbMap@GH3@@QBE?AW4QbValueType@2@XZ	; GH3::QbMap::Type
PUBLIC	?IndexMask@QbMap@GH3@@QBEIXZ			; GH3::QbMap::IndexMask
PUBLIC	??4QbMap@GH3@@QAEAAU01@ABU01@@Z			; GH3::QbMap::operator=
PUBLIC	??4QbMap@GH3@@QAEAAU01@$$QAU01@@Z		; GH3::QbMap::operator=
PUBLIC	?Size@GlobalMap@GH3@@SAIXZ			; GH3::GlobalMap::Size
PUBLIC	?Length@GlobalMap@GH3@@SAIXZ			; GH3::GlobalMap::Length
PUBLIC	?IndexMask@GlobalMap@GH3@@SAIXZ			; GH3::GlobalMap::IndexMask
PUBLIC	?Nodes@GlobalMap@GH3@@SAPAPAUHashMapNode@2@XZ	; GH3::GlobalMap::Nodes
PUBLIC	?GetEntry@GlobalMap@GH3@@SAPAUHashMapNode@2@UQbKey@2@@Z ; GH3::GlobalMap::GetEntry
PUBLIC	??4GlobalMap@GH3@@QAEAAV01@ABV01@@Z		; GH3::GlobalMap::operator=
PUBLIC	??4BinaryTree@GH3@@QAEAAU01@ABU01@@Z		; GH3::BinaryTree::operator=
PUBLIC	??4BinaryTree@GH3@@QAEAAU01@$$QAU01@@Z		; GH3::BinaryTree::operator=
PUBLIC	??$NativeInsertCall@$0EHJKMA@PAD@GH3@@YGXPAUQbStruct@0@UQbKey@0@PAD@Z ; GH3::NativeInsertCall<4692672,char *>
PUBLIC	??$NativeInsertCall@$0EHJLCA@PA_W@GH3@@YGXPAUQbStruct@0@UQbKey@0@PA_W@Z ; GH3::NativeInsertCall<4692768,wchar_t *>
PUBLIC	??$NativeInsertCall@$0EHJLIA@I@GH3@@YGXPAUQbStruct@0@UQbKey@0@I@Z ; GH3::NativeInsertCall<4692864,unsigned int>
PUBLIC	??$NativeInsertCall@$0EHJLNA@H@GH3@@YGXPAUQbStruct@0@UQbKey@0@H@Z ; GH3::NativeInsertCall<4692944,int>
PUBLIC	??$NativeInsertCall@$0EHJLNA@I@GH3@@YGXPAUQbStruct@0@UQbKey@0@I@Z ; GH3::NativeInsertCall<4692944,unsigned int>
PUBLIC	??$NativeInsertCall@$0EHJMCA@M@GH3@@YGXPAUQbStruct@0@UQbKey@0@M@Z ; GH3::NativeInsertCall<4693024,float>
PUBLIC	??$NativeInsertCall@$0EHJMIA@UQbKey@GH3@@@GH3@@YGXPAUQbStruct@0@UQbKey@0@1@Z ; GH3::NativeInsertCall<4693120,GH3::QbKey>
PUBLIC	??$NativeInsertCall@$0EHJMNA@PAUQbVector@GH3@@@GH3@@YGXPAUQbStruct@0@UQbKey@0@PAUQbVector@0@@Z ; GH3::NativeInsertCall<4693200,GH3::QbVector *>
PUBLIC	??$NativeInsertCall@$0EHJNGA@PAUQbPair@GH3@@@GH3@@YGXPAUQbStruct@0@UQbKey@0@PAUQbPair@0@@Z ; GH3::NativeInsertCall<4693344,GH3::QbPair *>
PUBLIC	??$NativeInsertCall@$0EHJNPA@PAUQbArray@GH3@@@GH3@@YGXPAUQbStruct@0@UQbKey@0@PAUQbArray@0@@Z ; GH3::NativeInsertCall<4693488,GH3::QbArray *>
PUBLIC	??$NativeInsertCall@$0EHJOEA@PAUQbStruct@GH3@@@GH3@@YGXPAUQbStruct@0@UQbKey@0@0@Z ; GH3::NativeInsertCall<4693568,GH3::QbStruct *>
PUBLIC	?nativeFunction@?1???$NativeInsertCall@$0EHJKMA@PAD@GH3@@YGXPAUQbStruct@1@UQbKey@1@PAD@Z@4QBXB ; `GH3::NativeInsertCall<4692672,char *>'::`2'::nativeFunction
PUBLIC	?nativeFunction@?1???$NativeInsertCall@$0EHJLCA@PA_W@GH3@@YGXPAUQbStruct@1@UQbKey@1@PA_W@Z@4QBXB ; `GH3::NativeInsertCall<4692768,wchar_t *>'::`2'::nativeFunction
PUBLIC	?nativeFunction@?1???$NativeInsertCall@$0EHJLIA@I@GH3@@YGXPAUQbStruct@1@UQbKey@1@I@Z@4QBXB ; `GH3::NativeInsertCall<4692864,unsigned int>'::`2'::nativeFunction
PUBLIC	?nativeFunction@?1???$NativeInsertCall@$0EHJLNA@H@GH3@@YGXPAUQbStruct@1@UQbKey@1@H@Z@4QBXB ; `GH3::NativeInsertCall<4692944,int>'::`2'::nativeFunction
PUBLIC	?nativeFunction@?1???$NativeInsertCall@$0EHJLNA@I@GH3@@YGXPAUQbStruct@1@UQbKey@1@I@Z@4QBXB ; `GH3::NativeInsertCall<4692944,unsigned int>'::`2'::nativeFunction
PUBLIC	?nativeFunction@?1???$NativeInsertCall@$0EHJMCA@M@GH3@@YGXPAUQbStruct@1@UQbKey@1@M@Z@4QBXB ; `GH3::NativeInsertCall<4693024,float>'::`2'::nativeFunction
PUBLIC	?nativeFunction@?1???$NativeInsertCall@$0EHJMIA@UQbKey@GH3@@@GH3@@YGXPAUQbStruct@1@UQbKey@1@1@Z@4QBXB ; `GH3::NativeInsertCall<4693120,GH3::QbKey>'::`2'::nativeFunction
PUBLIC	?nativeFunction@?1???$NativeInsertCall@$0EHJMNA@PAUQbVector@GH3@@@GH3@@YGXPAUQbStruct@1@UQbKey@1@PAUQbVector@1@@Z@4QBXB ; `GH3::NativeInsertCall<4693200,GH3::QbVector *>'::`2'::nativeFunction
PUBLIC	?nativeFunction@?1???$NativeInsertCall@$0EHJNGA@PAUQbPair@GH3@@@GH3@@YGXPAUQbStruct@1@UQbKey@1@PAUQbPair@1@@Z@4QBXB ; `GH3::NativeInsertCall<4693344,GH3::QbPair *>'::`2'::nativeFunction
PUBLIC	?nativeFunction@?1???$NativeInsertCall@$0EHJNPA@PAUQbArray@GH3@@@GH3@@YGXPAUQbStruct@1@UQbKey@1@PAUQbArray@1@@Z@4QBXB ; `GH3::NativeInsertCall<4693488,GH3::QbArray *>'::`2'::nativeFunction
PUBLIC	?nativeFunction@?1???$NativeInsertCall@$0EHJOEA@PAUQbStruct@GH3@@@GH3@@YGXPAUQbStruct@1@UQbKey@1@0@Z@4QBXB ; `GH3::NativeInsertCall<4693568,GH3::QbStruct *>'::`2'::nativeFunction
EXTRN	??AQbArray@GH3@@QBEIH@Z:PROC			; GH3::QbArray::operator[]
EXTRN	??AQbArray@GH3@@QAEAAIH@Z:PROC			; GH3::QbArray::operator[]
EXTRN	??AQbMap@GH3@@QBEIUQbKey@1@@Z:PROC		; GH3::QbMap::operator[]
EXTRN	??AQbMap@GH3@@QAEAAIUQbKey@1@@Z:PROC		; GH3::QbMap::operator[]
EXTRN	?GetTypedValue@BinaryTree@GH3@@QAE_NUQbKey@2@W4QbValueType@2@PAX@Z:PROC ; GH3::BinaryTree::GetTypedValue
EXTRN	@_RTC_CheckStackVars@8:PROC
EXTRN	__RTC_CheckEsp:PROC
EXTRN	__RTC_InitBase:PROC
EXTRN	__RTC_Shutdown:PROC
EXTRN	__fltused:DWORD
;	COMDAT rtc$TMZ
rtc$TMZ	SEGMENT
__RTC_Shutdown.rtc$TMZ DD FLAT:__RTC_Shutdown
rtc$TMZ	ENDS
;	COMDAT rtc$IMZ
rtc$IMZ	SEGMENT
__RTC_InitBase.rtc$IMZ DD FLAT:__RTC_InitBase
rtc$IMZ	ENDS
;	COMDAT ?nativeFunction@?1???$NativeInsertCall@$0EHJOEA@PAUQbStruct@GH3@@@GH3@@YGXPAUQbStruct@1@UQbKey@1@0@Z@4QBXB
CONST	SEGMENT
?nativeFunction@?1???$NativeInsertCall@$0EHJOEA@PAUQbStruct@GH3@@@GH3@@YGXPAUQbStruct@1@UQbKey@1@0@Z@4QBXB DD 0479e40H ; `GH3::NativeInsertCall<4693568,GH3::QbStruct *>'::`2'::nativeFunction
CONST	ENDS
;	COMDAT ?nativeFunction@?1???$NativeInsertCall@$0EHJNPA@PAUQbArray@GH3@@@GH3@@YGXPAUQbStruct@1@UQbKey@1@PAUQbArray@1@@Z@4QBXB
CONST	SEGMENT
?nativeFunction@?1???$NativeInsertCall@$0EHJNPA@PAUQbArray@GH3@@@GH3@@YGXPAUQbStruct@1@UQbKey@1@PAUQbArray@1@@Z@4QBXB DD 0479df0H ; `GH3::NativeInsertCall<4693488,GH3::QbArray *>'::`2'::nativeFunction
CONST	ENDS
;	COMDAT ?nativeFunction@?1???$NativeInsertCall@$0EHJNGA@PAUQbPair@GH3@@@GH3@@YGXPAUQbStruct@1@UQbKey@1@PAUQbPair@1@@Z@4QBXB
CONST	SEGMENT
?nativeFunction@?1???$NativeInsertCall@$0EHJNGA@PAUQbPair@GH3@@@GH3@@YGXPAUQbStruct@1@UQbKey@1@PAUQbPair@1@@Z@4QBXB DD 0479d60H ; `GH3::NativeInsertCall<4693344,GH3::QbPair *>'::`2'::nativeFunction
CONST	ENDS
;	COMDAT ?nativeFunction@?1???$NativeInsertCall@$0EHJMNA@PAUQbVector@GH3@@@GH3@@YGXPAUQbStruct@1@UQbKey@1@PAUQbVector@1@@Z@4QBXB
CONST	SEGMENT
?nativeFunction@?1???$NativeInsertCall@$0EHJMNA@PAUQbVector@GH3@@@GH3@@YGXPAUQbStruct@1@UQbKey@1@PAUQbVector@1@@Z@4QBXB DD 0479cd0H ; `GH3::NativeInsertCall<4693200,GH3::QbVector *>'::`2'::nativeFunction
CONST	ENDS
;	COMDAT ?nativeFunction@?1???$NativeInsertCall@$0EHJMIA@UQbKey@GH3@@@GH3@@YGXPAUQbStruct@1@UQbKey@1@1@Z@4QBXB
CONST	SEGMENT
?nativeFunction@?1???$NativeInsertCall@$0EHJMIA@UQbKey@GH3@@@GH3@@YGXPAUQbStruct@1@UQbKey@1@1@Z@4QBXB DD 0479c80H ; `GH3::NativeInsertCall<4693120,GH3::QbKey>'::`2'::nativeFunction
CONST	ENDS
;	COMDAT ?nativeFunction@?1???$NativeInsertCall@$0EHJMCA@M@GH3@@YGXPAUQbStruct@1@UQbKey@1@M@Z@4QBXB
CONST	SEGMENT
?nativeFunction@?1???$NativeInsertCall@$0EHJMCA@M@GH3@@YGXPAUQbStruct@1@UQbKey@1@M@Z@4QBXB DD 0479c20H ; `GH3::NativeInsertCall<4693024,float>'::`2'::nativeFunction
CONST	ENDS
;	COMDAT ?nativeFunction@?1???$NativeInsertCall@$0EHJLNA@I@GH3@@YGXPAUQbStruct@1@UQbKey@1@I@Z@4QBXB
CONST	SEGMENT
?nativeFunction@?1???$NativeInsertCall@$0EHJLNA@I@GH3@@YGXPAUQbStruct@1@UQbKey@1@I@Z@4QBXB DD 0479bd0H ; `GH3::NativeInsertCall<4692944,unsigned int>'::`2'::nativeFunction
CONST	ENDS
;	COMDAT ?nativeFunction@?1???$NativeInsertCall@$0EHJLNA@H@GH3@@YGXPAUQbStruct@1@UQbKey@1@H@Z@4QBXB
CONST	SEGMENT
?nativeFunction@?1???$NativeInsertCall@$0EHJLNA@H@GH3@@YGXPAUQbStruct@1@UQbKey@1@H@Z@4QBXB DD 0479bd0H ; `GH3::NativeInsertCall<4692944,int>'::`2'::nativeFunction
CONST	ENDS
;	COMDAT ?nativeFunction@?1???$NativeInsertCall@$0EHJLIA@I@GH3@@YGXPAUQbStruct@1@UQbKey@1@I@Z@4QBXB
CONST	SEGMENT
?nativeFunction@?1???$NativeInsertCall@$0EHJLIA@I@GH3@@YGXPAUQbStruct@1@UQbKey@1@I@Z@4QBXB DD 0479b80H ; `GH3::NativeInsertCall<4692864,unsigned int>'::`2'::nativeFunction
CONST	ENDS
;	COMDAT ?nativeFunction@?1???$NativeInsertCall@$0EHJLCA@PA_W@GH3@@YGXPAUQbStruct@1@UQbKey@1@PA_W@Z@4QBXB
CONST	SEGMENT
?nativeFunction@?1???$NativeInsertCall@$0EHJLCA@PA_W@GH3@@YGXPAUQbStruct@1@UQbKey@1@PA_W@Z@4QBXB DD 0479b20H ; `GH3::NativeInsertCall<4692768,wchar_t *>'::`2'::nativeFunction
CONST	ENDS
;	COMDAT ?nativeFunction@?1???$NativeInsertCall@$0EHJKMA@PAD@GH3@@YGXPAUQbStruct@1@UQbKey@1@PAD@Z@4QBXB
CONST	SEGMENT
?nativeFunction@?1???$NativeInsertCall@$0EHJKMA@PAD@GH3@@YGXPAUQbStruct@1@UQbKey@1@PAD@Z@4QBXB DD 0479ac0H ; `GH3::NativeInsertCall<4692672,char *>'::`2'::nativeFunction
CONST	ENDS
; Function compile flags: /Odtp /RTCsu /ZI
; File c:\windows\fastgh3\plugins\code\gh3\qbstruct.cpp
;	COMDAT ??$NativeInsertCall@$0EHJOEA@PAUQbStruct@GH3@@@GH3@@YGXPAUQbStruct@0@UQbKey@0@0@Z
_TEXT	SEGMENT
_qbStruct$ = 8						; size = 4
_qbKey$ = 12						; size = 4
_item$ = 16						; size = 4
??$NativeInsertCall@$0EHJOEA@PAUQbStruct@GH3@@@GH3@@YGXPAUQbStruct@0@UQbKey@0@0@Z PROC ; GH3::NativeInsertCall<4693568,GH3::QbStruct *>, COMDAT

; 268  : 		static const void * const nativeFunction = (void *)address;
; 269  : 		__asm
; 270  : 		{
; 271  : 			//Have to use [esp] because Visual Studio expects there to be a base pointer if you use variable names and we're not using 
; 272  : 			mov ecx, [esp+4];

	mov	ecx, DWORD PTR [esp+4]

; 273  : 			push [esp+0Ch];

	push	DWORD PTR [esp+12]

; 274  : 			push [esp+0Ch];

	push	DWORD PTR [esp+12]

; 275  : 			call nativeFunction;

	call	DWORD PTR ?nativeFunction@?1???$NativeInsertCall@$0EHJOEA@PAUQbStruct@GH3@@@GH3@@YGXPAUQbStruct@1@UQbKey@1@0@Z@4QBXB ; `GH3::NativeInsertCall<4693568,GH3::QbStruct *>'::`2'::nativeFunction

; 276  : 			retn 0Ch;

	ret	12					; 0000000cH
??$NativeInsertCall@$0EHJOEA@PAUQbStruct@GH3@@@GH3@@YGXPAUQbStruct@0@UQbKey@0@0@Z ENDP ; GH3::NativeInsertCall<4693568,GH3::QbStruct *>
_TEXT	ENDS
; Function compile flags: /Odtp /RTCsu /ZI
; File c:\windows\fastgh3\plugins\code\gh3\qbstruct.cpp
;	COMDAT ??$NativeInsertCall@$0EHJNPA@PAUQbArray@GH3@@@GH3@@YGXPAUQbStruct@0@UQbKey@0@PAUQbArray@0@@Z
_TEXT	SEGMENT
_qbStruct$ = 8						; size = 4
_qbKey$ = 12						; size = 4
_item$ = 16						; size = 4
??$NativeInsertCall@$0EHJNPA@PAUQbArray@GH3@@@GH3@@YGXPAUQbStruct@0@UQbKey@0@PAUQbArray@0@@Z PROC ; GH3::NativeInsertCall<4693488,GH3::QbArray *>, COMDAT

; 268  : 		static const void * const nativeFunction = (void *)address;
; 269  : 		__asm
; 270  : 		{
; 271  : 			//Have to use [esp] because Visual Studio expects there to be a base pointer if you use variable names and we're not using 
; 272  : 			mov ecx, [esp+4];

	mov	ecx, DWORD PTR [esp+4]

; 273  : 			push [esp+0Ch];

	push	DWORD PTR [esp+12]

; 274  : 			push [esp+0Ch];

	push	DWORD PTR [esp+12]

; 275  : 			call nativeFunction;

	call	DWORD PTR ?nativeFunction@?1???$NativeInsertCall@$0EHJNPA@PAUQbArray@GH3@@@GH3@@YGXPAUQbStruct@1@UQbKey@1@PAUQbArray@1@@Z@4QBXB ; `GH3::NativeInsertCall<4693488,GH3::QbArray *>'::`2'::nativeFunction

; 276  : 			retn 0Ch;

	ret	12					; 0000000cH
??$NativeInsertCall@$0EHJNPA@PAUQbArray@GH3@@@GH3@@YGXPAUQbStruct@0@UQbKey@0@PAUQbArray@0@@Z ENDP ; GH3::NativeInsertCall<4693488,GH3::QbArray *>
_TEXT	ENDS
; Function compile flags: /Odtp /RTCsu /ZI
; File c:\windows\fastgh3\plugins\code\gh3\qbstruct.cpp
;	COMDAT ??$NativeInsertCall@$0EHJNGA@PAUQbPair@GH3@@@GH3@@YGXPAUQbStruct@0@UQbKey@0@PAUQbPair@0@@Z
_TEXT	SEGMENT
_qbStruct$ = 8						; size = 4
_qbKey$ = 12						; size = 4
_item$ = 16						; size = 4
??$NativeInsertCall@$0EHJNGA@PAUQbPair@GH3@@@GH3@@YGXPAUQbStruct@0@UQbKey@0@PAUQbPair@0@@Z PROC ; GH3::NativeInsertCall<4693344,GH3::QbPair *>, COMDAT

; 268  : 		static const void * const nativeFunction = (void *)address;
; 269  : 		__asm
; 270  : 		{
; 271  : 			//Have to use [esp] because Visual Studio expects there to be a base pointer if you use variable names and we're not using 
; 272  : 			mov ecx, [esp+4];

	mov	ecx, DWORD PTR [esp+4]

; 273  : 			push [esp+0Ch];

	push	DWORD PTR [esp+12]

; 274  : 			push [esp+0Ch];

	push	DWORD PTR [esp+12]

; 275  : 			call nativeFunction;

	call	DWORD PTR ?nativeFunction@?1???$NativeInsertCall@$0EHJNGA@PAUQbPair@GH3@@@GH3@@YGXPAUQbStruct@1@UQbKey@1@PAUQbPair@1@@Z@4QBXB ; `GH3::NativeInsertCall<4693344,GH3::QbPair *>'::`2'::nativeFunction

; 276  : 			retn 0Ch;

	ret	12					; 0000000cH
??$NativeInsertCall@$0EHJNGA@PAUQbPair@GH3@@@GH3@@YGXPAUQbStruct@0@UQbKey@0@PAUQbPair@0@@Z ENDP ; GH3::NativeInsertCall<4693344,GH3::QbPair *>
_TEXT	ENDS
; Function compile flags: /Odtp /RTCsu /ZI
; File c:\windows\fastgh3\plugins\code\gh3\qbstruct.cpp
;	COMDAT ??$NativeInsertCall@$0EHJMNA@PAUQbVector@GH3@@@GH3@@YGXPAUQbStruct@0@UQbKey@0@PAUQbVector@0@@Z
_TEXT	SEGMENT
_qbStruct$ = 8						; size = 4
_qbKey$ = 12						; size = 4
_item$ = 16						; size = 4
??$NativeInsertCall@$0EHJMNA@PAUQbVector@GH3@@@GH3@@YGXPAUQbStruct@0@UQbKey@0@PAUQbVector@0@@Z PROC ; GH3::NativeInsertCall<4693200,GH3::QbVector *>, COMDAT

; 268  : 		static const void * const nativeFunction = (void *)address;
; 269  : 		__asm
; 270  : 		{
; 271  : 			//Have to use [esp] because Visual Studio expects there to be a base pointer if you use variable names and we're not using 
; 272  : 			mov ecx, [esp+4];

	mov	ecx, DWORD PTR [esp+4]

; 273  : 			push [esp+0Ch];

	push	DWORD PTR [esp+12]

; 274  : 			push [esp+0Ch];

	push	DWORD PTR [esp+12]

; 275  : 			call nativeFunction;

	call	DWORD PTR ?nativeFunction@?1???$NativeInsertCall@$0EHJMNA@PAUQbVector@GH3@@@GH3@@YGXPAUQbStruct@1@UQbKey@1@PAUQbVector@1@@Z@4QBXB ; `GH3::NativeInsertCall<4693200,GH3::QbVector *>'::`2'::nativeFunction

; 276  : 			retn 0Ch;

	ret	12					; 0000000cH
??$NativeInsertCall@$0EHJMNA@PAUQbVector@GH3@@@GH3@@YGXPAUQbStruct@0@UQbKey@0@PAUQbVector@0@@Z ENDP ; GH3::NativeInsertCall<4693200,GH3::QbVector *>
_TEXT	ENDS
; Function compile flags: /Odtp /RTCsu /ZI
; File c:\windows\fastgh3\plugins\code\gh3\qbstruct.cpp
;	COMDAT ??$NativeInsertCall@$0EHJMIA@UQbKey@GH3@@@GH3@@YGXPAUQbStruct@0@UQbKey@0@1@Z
_TEXT	SEGMENT
_qbStruct$ = 8						; size = 4
_qbKey$ = 12						; size = 4
_item$ = 16						; size = 4
??$NativeInsertCall@$0EHJMIA@UQbKey@GH3@@@GH3@@YGXPAUQbStruct@0@UQbKey@0@1@Z PROC ; GH3::NativeInsertCall<4693120,GH3::QbKey>, COMDAT

; 268  : 		static const void * const nativeFunction = (void *)address;
; 269  : 		__asm
; 270  : 		{
; 271  : 			//Have to use [esp] because Visual Studio expects there to be a base pointer if you use variable names and we're not using 
; 272  : 			mov ecx, [esp+4];

	mov	ecx, DWORD PTR [esp+4]

; 273  : 			push [esp+0Ch];

	push	DWORD PTR [esp+12]

; 274  : 			push [esp+0Ch];

	push	DWORD PTR [esp+12]

; 275  : 			call nativeFunction;

	call	DWORD PTR ?nativeFunction@?1???$NativeInsertCall@$0EHJMIA@UQbKey@GH3@@@GH3@@YGXPAUQbStruct@1@UQbKey@1@1@Z@4QBXB ; `GH3::NativeInsertCall<4693120,GH3::QbKey>'::`2'::nativeFunction

; 276  : 			retn 0Ch;

	ret	12					; 0000000cH
??$NativeInsertCall@$0EHJMIA@UQbKey@GH3@@@GH3@@YGXPAUQbStruct@0@UQbKey@0@1@Z ENDP ; GH3::NativeInsertCall<4693120,GH3::QbKey>
_TEXT	ENDS
; Function compile flags: /Odtp /RTCsu /ZI
; File c:\windows\fastgh3\plugins\code\gh3\qbstruct.cpp
;	COMDAT ??$NativeInsertCall@$0EHJMCA@M@GH3@@YGXPAUQbStruct@0@UQbKey@0@M@Z
_TEXT	SEGMENT
_qbStruct$ = 8						; size = 4
_qbKey$ = 12						; size = 4
_item$ = 16						; size = 4
??$NativeInsertCall@$0EHJMCA@M@GH3@@YGXPAUQbStruct@0@UQbKey@0@M@Z PROC ; GH3::NativeInsertCall<4693024,float>, COMDAT

; 268  : 		static const void * const nativeFunction = (void *)address;
; 269  : 		__asm
; 270  : 		{
; 271  : 			//Have to use [esp] because Visual Studio expects there to be a base pointer if you use variable names and we're not using 
; 272  : 			mov ecx, [esp+4];

	mov	ecx, DWORD PTR [esp+4]

; 273  : 			push [esp+0Ch];

	push	DWORD PTR [esp+12]

; 274  : 			push [esp+0Ch];

	push	DWORD PTR [esp+12]

; 275  : 			call nativeFunction;

	call	DWORD PTR ?nativeFunction@?1???$NativeInsertCall@$0EHJMCA@M@GH3@@YGXPAUQbStruct@1@UQbKey@1@M@Z@4QBXB ; `GH3::NativeInsertCall<4693024,float>'::`2'::nativeFunction

; 276  : 			retn 0Ch;

	ret	12					; 0000000cH
??$NativeInsertCall@$0EHJMCA@M@GH3@@YGXPAUQbStruct@0@UQbKey@0@M@Z ENDP ; GH3::NativeInsertCall<4693024,float>
_TEXT	ENDS
; Function compile flags: /Odtp /RTCsu /ZI
; File c:\windows\fastgh3\plugins\code\gh3\qbstruct.cpp
;	COMDAT ??$NativeInsertCall@$0EHJLNA@I@GH3@@YGXPAUQbStruct@0@UQbKey@0@I@Z
_TEXT	SEGMENT
_qbStruct$ = 8						; size = 4
_qbKey$ = 12						; size = 4
_item$ = 16						; size = 4
??$NativeInsertCall@$0EHJLNA@I@GH3@@YGXPAUQbStruct@0@UQbKey@0@I@Z PROC ; GH3::NativeInsertCall<4692944,unsigned int>, COMDAT

; 268  : 		static const void * const nativeFunction = (void *)address;
; 269  : 		__asm
; 270  : 		{
; 271  : 			//Have to use [esp] because Visual Studio expects there to be a base pointer if you use variable names and we're not using 
; 272  : 			mov ecx, [esp+4];

	mov	ecx, DWORD PTR [esp+4]

; 273  : 			push [esp+0Ch];

	push	DWORD PTR [esp+12]

; 274  : 			push [esp+0Ch];

	push	DWORD PTR [esp+12]

; 275  : 			call nativeFunction;

	call	DWORD PTR ?nativeFunction@?1???$NativeInsertCall@$0EHJLNA@I@GH3@@YGXPAUQbStruct@1@UQbKey@1@I@Z@4QBXB ; `GH3::NativeInsertCall<4692944,unsigned int>'::`2'::nativeFunction

; 276  : 			retn 0Ch;

	ret	12					; 0000000cH
??$NativeInsertCall@$0EHJLNA@I@GH3@@YGXPAUQbStruct@0@UQbKey@0@I@Z ENDP ; GH3::NativeInsertCall<4692944,unsigned int>
_TEXT	ENDS
; Function compile flags: /Odtp /RTCsu /ZI
; File c:\windows\fastgh3\plugins\code\gh3\qbstruct.cpp
;	COMDAT ??$NativeInsertCall@$0EHJLNA@H@GH3@@YGXPAUQbStruct@0@UQbKey@0@H@Z
_TEXT	SEGMENT
_qbStruct$ = 8						; size = 4
_qbKey$ = 12						; size = 4
_item$ = 16						; size = 4
??$NativeInsertCall@$0EHJLNA@H@GH3@@YGXPAUQbStruct@0@UQbKey@0@H@Z PROC ; GH3::NativeInsertCall<4692944,int>, COMDAT

; 268  : 		static const void * const nativeFunction = (void *)address;
; 269  : 		__asm
; 270  : 		{
; 271  : 			//Have to use [esp] because Visual Studio expects there to be a base pointer if you use variable names and we're not using 
; 272  : 			mov ecx, [esp+4];

	mov	ecx, DWORD PTR [esp+4]

; 273  : 			push [esp+0Ch];

	push	DWORD PTR [esp+12]

; 274  : 			push [esp+0Ch];

	push	DWORD PTR [esp+12]

; 275  : 			call nativeFunction;

	call	DWORD PTR ?nativeFunction@?1???$NativeInsertCall@$0EHJLNA@H@GH3@@YGXPAUQbStruct@1@UQbKey@1@H@Z@4QBXB ; `GH3::NativeInsertCall<4692944,int>'::`2'::nativeFunction

; 276  : 			retn 0Ch;

	ret	12					; 0000000cH
??$NativeInsertCall@$0EHJLNA@H@GH3@@YGXPAUQbStruct@0@UQbKey@0@H@Z ENDP ; GH3::NativeInsertCall<4692944,int>
_TEXT	ENDS
; Function compile flags: /Odtp /RTCsu /ZI
; File c:\windows\fastgh3\plugins\code\gh3\qbstruct.cpp
;	COMDAT ??$NativeInsertCall@$0EHJLIA@I@GH3@@YGXPAUQbStruct@0@UQbKey@0@I@Z
_TEXT	SEGMENT
_qbStruct$ = 8						; size = 4
_qbKey$ = 12						; size = 4
_item$ = 16						; size = 4
??$NativeInsertCall@$0EHJLIA@I@GH3@@YGXPAUQbStruct@0@UQbKey@0@I@Z PROC ; GH3::NativeInsertCall<4692864,unsigned int>, COMDAT

; 268  : 		static const void * const nativeFunction = (void *)address;
; 269  : 		__asm
; 270  : 		{
; 271  : 			//Have to use [esp] because Visual Studio expects there to be a base pointer if you use variable names and we're not using 
; 272  : 			mov ecx, [esp+4];

	mov	ecx, DWORD PTR [esp+4]

; 273  : 			push [esp+0Ch];

	push	DWORD PTR [esp+12]

; 274  : 			push [esp+0Ch];

	push	DWORD PTR [esp+12]

; 275  : 			call nativeFunction;

	call	DWORD PTR ?nativeFunction@?1???$NativeInsertCall@$0EHJLIA@I@GH3@@YGXPAUQbStruct@1@UQbKey@1@I@Z@4QBXB ; `GH3::NativeInsertCall<4692864,unsigned int>'::`2'::nativeFunction

; 276  : 			retn 0Ch;

	ret	12					; 0000000cH
??$NativeInsertCall@$0EHJLIA@I@GH3@@YGXPAUQbStruct@0@UQbKey@0@I@Z ENDP ; GH3::NativeInsertCall<4692864,unsigned int>
_TEXT	ENDS
; Function compile flags: /Odtp /RTCsu /ZI
; File c:\windows\fastgh3\plugins\code\gh3\qbstruct.cpp
;	COMDAT ??$NativeInsertCall@$0EHJLCA@PA_W@GH3@@YGXPAUQbStruct@0@UQbKey@0@PA_W@Z
_TEXT	SEGMENT
_qbStruct$ = 8						; size = 4
_qbKey$ = 12						; size = 4
_item$ = 16						; size = 4
??$NativeInsertCall@$0EHJLCA@PA_W@GH3@@YGXPAUQbStruct@0@UQbKey@0@PA_W@Z PROC ; GH3::NativeInsertCall<4692768,wchar_t *>, COMDAT

; 268  : 		static const void * const nativeFunction = (void *)address;
; 269  : 		__asm
; 270  : 		{
; 271  : 			//Have to use [esp] because Visual Studio expects there to be a base pointer if you use variable names and we're not using 
; 272  : 			mov ecx, [esp+4];

	mov	ecx, DWORD PTR [esp+4]

; 273  : 			push [esp+0Ch];

	push	DWORD PTR [esp+12]

; 274  : 			push [esp+0Ch];

	push	DWORD PTR [esp+12]

; 275  : 			call nativeFunction;

	call	DWORD PTR ?nativeFunction@?1???$NativeInsertCall@$0EHJLCA@PA_W@GH3@@YGXPAUQbStruct@1@UQbKey@1@PA_W@Z@4QBXB ; `GH3::NativeInsertCall<4692768,wchar_t *>'::`2'::nativeFunction

; 276  : 			retn 0Ch;

	ret	12					; 0000000cH
??$NativeInsertCall@$0EHJLCA@PA_W@GH3@@YGXPAUQbStruct@0@UQbKey@0@PA_W@Z ENDP ; GH3::NativeInsertCall<4692768,wchar_t *>
_TEXT	ENDS
; Function compile flags: /Odtp /RTCsu /ZI
; File c:\windows\fastgh3\plugins\code\gh3\qbstruct.cpp
;	COMDAT ??$NativeInsertCall@$0EHJKMA@PAD@GH3@@YGXPAUQbStruct@0@UQbKey@0@PAD@Z
_TEXT	SEGMENT
_qbStruct$ = 8						; size = 4
_qbKey$ = 12						; size = 4
_item$ = 16						; size = 4
??$NativeInsertCall@$0EHJKMA@PAD@GH3@@YGXPAUQbStruct@0@UQbKey@0@PAD@Z PROC ; GH3::NativeInsertCall<4692672,char *>, COMDAT

; 268  : 		static const void * const nativeFunction = (void *)address;
; 269  : 		__asm
; 270  : 		{
; 271  : 			//Have to use [esp] because Visual Studio expects there to be a base pointer if you use variable names and we're not using 
; 272  : 			mov ecx, [esp+4];

	mov	ecx, DWORD PTR [esp+4]

; 273  : 			push [esp+0Ch];

	push	DWORD PTR [esp+12]

; 274  : 			push [esp+0Ch];

	push	DWORD PTR [esp+12]

; 275  : 			call nativeFunction;

	call	DWORD PTR ?nativeFunction@?1???$NativeInsertCall@$0EHJKMA@PAD@GH3@@YGXPAUQbStruct@1@UQbKey@1@PAD@Z@4QBXB ; `GH3::NativeInsertCall<4692672,char *>'::`2'::nativeFunction

; 276  : 			retn 0Ch;

	ret	12					; 0000000cH
??$NativeInsertCall@$0EHJKMA@PAD@GH3@@YGXPAUQbStruct@0@UQbKey@0@PAD@Z ENDP ; GH3::NativeInsertCall<4692672,char *>
_TEXT	ENDS
; Function compile flags: /Odtp /RTCsu /ZI
;	COMDAT ??4BinaryTree@GH3@@QAEAAU01@$$QAU01@@Z
_TEXT	SEGMENT
_$S3$1 = -20						; size = 4
_this$ = -8						; size = 4
___that$ = 8						; size = 4
??4BinaryTree@GH3@@QAEAAU01@$$QAU01@@Z PROC		; GH3::BinaryTree::operator=, COMDAT
; _this$ = ecx
	push	ebp
	mov	ebp, esp
	sub	esp, 216				; 000000d8H
	push	ebx
	push	esi
	push	edi
	push	ecx
	lea	edi, DWORD PTR [ebp-216]
	mov	ecx, 54					; 00000036H
	mov	eax, -858993460				; ccccccccH
	rep stosd
	pop	ecx
	mov	DWORD PTR _this$[ebp], ecx
	mov	eax, DWORD PTR _this$[ebp]
	mov	ecx, DWORD PTR ___that$[ebp]
	mov	dx, WORD PTR [ecx]
	mov	WORD PTR [eax], dx
	mov	eax, DWORD PTR _this$[ebp]
	mov	ecx, DWORD PTR ___that$[ebp]
	mov	dl, BYTE PTR [ecx+2]
	mov	BYTE PTR [eax+2], dl
	mov	eax, DWORD PTR _this$[ebp]
	mov	ecx, DWORD PTR ___that$[ebp]
	mov	dl, BYTE PTR [ecx+3]
	mov	BYTE PTR [eax+3], dl
	mov	DWORD PTR _$S3$1[ebp], 0
	jmp	SHORT $LN4@operator
$LN2@operator:
	mov	eax, DWORD PTR _$S3$1[ebp]
	add	eax, 1
	mov	DWORD PTR _$S3$1[ebp], eax
$LN4@operator:
	cmp	DWORD PTR _$S3$1[ebp], 1
	jae	SHORT $LN3@operator
	mov	eax, DWORD PTR _$S3$1[ebp]
	mov	ecx, DWORD PTR _this$[ebp]
	mov	edx, DWORD PTR _$S3$1[ebp]
	mov	esi, DWORD PTR ___that$[ebp]
	mov	edx, DWORD PTR [esi+edx*4+4]
	mov	DWORD PTR [ecx+eax*4+4], edx
	jmp	SHORT $LN2@operator
$LN3@operator:
	mov	eax, DWORD PTR _this$[ebp]
	pop	edi
	pop	esi
	pop	ebx
	mov	esp, ebp
	pop	ebp
	ret	4
??4BinaryTree@GH3@@QAEAAU01@$$QAU01@@Z ENDP		; GH3::BinaryTree::operator=
_TEXT	ENDS
; Function compile flags: /Odtp /RTCsu /ZI
;	COMDAT ??4BinaryTree@GH3@@QAEAAU01@ABU01@@Z
_TEXT	SEGMENT
_this$ = -8						; size = 4
___that$ = 8						; size = 4
??4BinaryTree@GH3@@QAEAAU01@ABU01@@Z PROC		; GH3::BinaryTree::operator=, COMDAT
; _this$ = ecx
	push	ebp
	mov	ebp, esp
	sub	esp, 204				; 000000ccH
	push	ebx
	push	esi
	push	edi
	push	ecx
	lea	edi, DWORD PTR [ebp-204]
	mov	ecx, 51					; 00000033H
	mov	eax, -858993460				; ccccccccH
	rep stosd
	pop	ecx
	mov	DWORD PTR _this$[ebp], ecx
	mov	eax, DWORD PTR ___that$[ebp]
	mov	ecx, DWORD PTR [eax]
	mov	edx, DWORD PTR [eax+4]
	mov	eax, DWORD PTR _this$[ebp]
	mov	DWORD PTR [eax], ecx
	mov	DWORD PTR [eax+4], edx
	mov	eax, DWORD PTR _this$[ebp]
	pop	edi
	pop	esi
	pop	ebx
	mov	esp, ebp
	pop	ebp
	ret	4
??4BinaryTree@GH3@@QAEAAU01@ABU01@@Z ENDP		; GH3::BinaryTree::operator=
_TEXT	ENDS
; Function compile flags: /Odtp /RTCsu /ZI
;	COMDAT ??4GlobalMap@GH3@@QAEAAV01@ABV01@@Z
_TEXT	SEGMENT
_this$ = -8						; size = 4
___that$ = 8						; size = 4
??4GlobalMap@GH3@@QAEAAV01@ABV01@@Z PROC		; GH3::GlobalMap::operator=, COMDAT
; _this$ = ecx
	push	ebp
	mov	ebp, esp
	sub	esp, 204				; 000000ccH
	push	ebx
	push	esi
	push	edi
	push	ecx
	lea	edi, DWORD PTR [ebp-204]
	mov	ecx, 51					; 00000033H
	mov	eax, -858993460				; ccccccccH
	rep stosd
	pop	ecx
	mov	DWORD PTR _this$[ebp], ecx
	mov	eax, DWORD PTR _this$[ebp]
	pop	edi
	pop	esi
	pop	ebx
	mov	esp, ebp
	pop	ebp
	ret	4
??4GlobalMap@GH3@@QAEAAV01@ABV01@@Z ENDP		; GH3::GlobalMap::operator=
_TEXT	ENDS
; Function compile flags: /Odtp /RTCsu /ZI
; File c:\windows\fastgh3\plugins\code\gh3\globalmap.h
;	COMDAT ?GetEntry@GlobalMap@GH3@@SAPAUHashMapNode@2@UQbKey@2@@Z
_TEXT	SEGMENT
_key$ = 8						; size = 4
?GetEntry@GlobalMap@GH3@@SAPAUHashMapNode@2@UQbKey@2@@Z PROC ; GH3::GlobalMap::GetEntry, COMDAT

; 32   : 		inline static HashMapNode * GetEntry(QbKey key) { return Nodes()[key & IndexMask()]; };

	push	ebp
	mov	ebp, esp
	sub	esp, 192				; 000000c0H
	push	ebx
	push	esi
	push	edi
	lea	edi, DWORD PTR [ebp-192]
	mov	ecx, 48					; 00000030H
	mov	eax, -858993460				; ccccccccH
	rep stosd
	call	?Nodes@GlobalMap@GH3@@SAPAPAUHashMapNode@2@XZ ; GH3::GlobalMap::Nodes
	mov	esi, eax
	lea	ecx, DWORD PTR _key$[ebp]
	call	??BQbKey@GH3@@QBEIXZ			; GH3::QbKey::operator unsigned int
	mov	edi, eax
	call	?IndexMask@GlobalMap@GH3@@SAIXZ		; GH3::GlobalMap::IndexMask
	and	edi, eax
	mov	eax, DWORD PTR [esi+edi*4]
	pop	edi
	pop	esi
	pop	ebx
	add	esp, 192				; 000000c0H
	cmp	ebp, esp
	call	__RTC_CheckEsp
	mov	esp, ebp
	pop	ebp
	ret	0
?GetEntry@GlobalMap@GH3@@SAPAUHashMapNode@2@UQbKey@2@@Z ENDP ; GH3::GlobalMap::GetEntry
_TEXT	ENDS
; Function compile flags: /Odtp /RTCsu /ZI
; File c:\windows\fastgh3\plugins\code\gh3\globalmap.h
;	COMDAT ?Nodes@GlobalMap@GH3@@SAPAPAUHashMapNode@2@XZ
_TEXT	SEGMENT
?Nodes@GlobalMap@GH3@@SAPAPAUHashMapNode@2@XZ PROC	; GH3::GlobalMap::Nodes, COMDAT

; 30   : 		inline static HashMapNode ** Nodes() { return reinterpret_cast<HashMapNode **>(0x00C03AA8); };

	push	ebp
	mov	ebp, esp
	sub	esp, 192				; 000000c0H
	push	ebx
	push	esi
	push	edi
	lea	edi, DWORD PTR [ebp-192]
	mov	ecx, 48					; 00000030H
	mov	eax, -858993460				; ccccccccH
	rep stosd
	mov	eax, 12597928				; 00c03aa8H
	pop	edi
	pop	esi
	pop	ebx
	mov	esp, ebp
	pop	ebp
	ret	0
?Nodes@GlobalMap@GH3@@SAPAPAUHashMapNode@2@XZ ENDP	; GH3::GlobalMap::Nodes
_TEXT	ENDS
; Function compile flags: /Odtp /RTCsu /ZI
; File c:\windows\fastgh3\plugins\code\gh3\globalmap.h
;	COMDAT ?IndexMask@GlobalMap@GH3@@SAIXZ
_TEXT	SEGMENT
?IndexMask@GlobalMap@GH3@@SAIXZ PROC			; GH3::GlobalMap::IndexMask, COMDAT

; 28   : 		inline static constexpr uint32_t IndexMask() { return Length() - 1; }

	push	ebp
	mov	ebp, esp
	sub	esp, 192				; 000000c0H
	push	ebx
	push	esi
	push	edi
	lea	edi, DWORD PTR [ebp-192]
	mov	ecx, 48					; 00000030H
	mov	eax, -858993460				; ccccccccH
	rep stosd
	call	?Length@GlobalMap@GH3@@SAIXZ		; GH3::GlobalMap::Length
	sub	eax, 1
	pop	edi
	pop	esi
	pop	ebx
	add	esp, 192				; 000000c0H
	cmp	ebp, esp
	call	__RTC_CheckEsp
	mov	esp, ebp
	pop	ebp
	ret	0
?IndexMask@GlobalMap@GH3@@SAIXZ ENDP			; GH3::GlobalMap::IndexMask
_TEXT	ENDS
; Function compile flags: /Odtp /RTCsu /ZI
; File c:\windows\fastgh3\plugins\code\gh3\globalmap.h
;	COMDAT ?Length@GlobalMap@GH3@@SAIXZ
_TEXT	SEGMENT
?Length@GlobalMap@GH3@@SAIXZ PROC			; GH3::GlobalMap::Length, COMDAT

; 27   : 		inline static constexpr uint32_t Length() { return 1 << Size(); }

	push	ebp
	mov	ebp, esp
	sub	esp, 192				; 000000c0H
	push	ebx
	push	esi
	push	edi
	lea	edi, DWORD PTR [ebp-192]
	mov	ecx, 48					; 00000030H
	mov	eax, -858993460				; ccccccccH
	rep stosd
	call	?Size@GlobalMap@GH3@@SAIXZ		; GH3::GlobalMap::Size
	mov	edx, 1
	mov	ecx, eax
	shl	edx, cl
	mov	eax, edx
	pop	edi
	pop	esi
	pop	ebx
	add	esp, 192				; 000000c0H
	cmp	ebp, esp
	call	__RTC_CheckEsp
	mov	esp, ebp
	pop	ebp
	ret	0
?Length@GlobalMap@GH3@@SAIXZ ENDP			; GH3::GlobalMap::Length
_TEXT	ENDS
; Function compile flags: /Odtp /RTCsu /ZI
; File c:\windows\fastgh3\plugins\code\gh3\globalmap.h
;	COMDAT ?Size@GlobalMap@GH3@@SAIXZ
_TEXT	SEGMENT
?Size@GlobalMap@GH3@@SAIXZ PROC				; GH3::GlobalMap::Size, COMDAT

; 26   : 		inline static constexpr uint32_t Size() { return 15; }

	push	ebp
	mov	ebp, esp
	sub	esp, 192				; 000000c0H
	push	ebx
	push	esi
	push	edi
	lea	edi, DWORD PTR [ebp-192]
	mov	ecx, 48					; 00000030H
	mov	eax, -858993460				; ccccccccH
	rep stosd
	mov	eax, 15					; 0000000fH
	pop	edi
	pop	esi
	pop	ebx
	mov	esp, ebp
	pop	ebp
	ret	0
?Size@GlobalMap@GH3@@SAIXZ ENDP				; GH3::GlobalMap::Size
_TEXT	ENDS
; Function compile flags: /Odtp /RTCsu /ZI
;	COMDAT ??4QbMap@GH3@@QAEAAU01@$$QAU01@@Z
_TEXT	SEGMENT
_this$ = -8						; size = 4
___that$ = 8						; size = 4
??4QbMap@GH3@@QAEAAU01@$$QAU01@@Z PROC			; GH3::QbMap::operator=, COMDAT
; _this$ = ecx
	push	ebp
	mov	ebp, esp
	sub	esp, 204				; 000000ccH
	push	ebx
	push	esi
	push	edi
	push	ecx
	lea	edi, DWORD PTR [ebp-204]
	mov	ecx, 51					; 00000033H
	mov	eax, -858993460				; ccccccccH
	rep stosd
	pop	ecx
	mov	DWORD PTR _this$[ebp], ecx
	mov	eax, DWORD PTR _this$[ebp]
	mov	ecx, DWORD PTR ___that$[ebp]
	mov	edx, DWORD PTR [ecx]
	mov	DWORD PTR [eax], edx
	mov	eax, DWORD PTR _this$[ebp]
	mov	ecx, DWORD PTR ___that$[ebp]
	mov	edx, DWORD PTR [ecx+4]
	mov	DWORD PTR [eax+4], edx
	mov	eax, DWORD PTR _this$[ebp]
	mov	ecx, DWORD PTR ___that$[ebp]
	mov	dl, BYTE PTR [ecx+8]
	mov	BYTE PTR [eax+8], dl
	mov	eax, DWORD PTR _this$[ebp]
	mov	ecx, DWORD PTR ___that$[ebp]
	mov	edx, DWORD PTR [ecx+12]
	mov	DWORD PTR [eax+12], edx
	mov	eax, DWORD PTR _this$[ebp]
	mov	ecx, DWORD PTR ___that$[ebp]
	mov	edx, DWORD PTR [ecx+16]
	mov	DWORD PTR [eax+16], edx
	mov	eax, DWORD PTR _this$[ebp]
	mov	ecx, DWORD PTR ___that$[ebp]
	mov	dl, BYTE PTR [ecx+20]
	mov	BYTE PTR [eax+20], dl
	mov	eax, DWORD PTR _this$[ebp]
	mov	ecx, DWORD PTR ___that$[ebp]
	mov	dl, BYTE PTR [ecx+21]
	mov	BYTE PTR [eax+21], dl
	mov	eax, DWORD PTR _this$[ebp]
	mov	ecx, DWORD PTR ___that$[ebp]
	mov	dl, BYTE PTR [ecx+22]
	mov	BYTE PTR [eax+22], dl
	mov	eax, DWORD PTR _this$[ebp]
	mov	ecx, DWORD PTR ___that$[ebp]
	mov	dl, BYTE PTR [ecx+23]
	mov	BYTE PTR [eax+23], dl
	mov	eax, DWORD PTR _this$[ebp]
	pop	edi
	pop	esi
	pop	ebx
	mov	esp, ebp
	pop	ebp
	ret	4
??4QbMap@GH3@@QAEAAU01@$$QAU01@@Z ENDP			; GH3::QbMap::operator=
_TEXT	ENDS
; Function compile flags: /Odtp /RTCsu /ZI
;	COMDAT ??4QbMap@GH3@@QAEAAU01@ABU01@@Z
_TEXT	SEGMENT
_this$ = -8						; size = 4
___that$ = 8						; size = 4
??4QbMap@GH3@@QAEAAU01@ABU01@@Z PROC			; GH3::QbMap::operator=, COMDAT
; _this$ = ecx
	push	ebp
	mov	ebp, esp
	sub	esp, 204				; 000000ccH
	push	ebx
	push	esi
	push	edi
	push	ecx
	lea	edi, DWORD PTR [ebp-204]
	mov	ecx, 51					; 00000033H
	mov	eax, -858993460				; ccccccccH
	rep stosd
	pop	ecx
	mov	DWORD PTR _this$[ebp], ecx
	mov	eax, DWORD PTR ___that$[ebp]
	mov	ecx, DWORD PTR _this$[ebp]
	mov	edx, DWORD PTR [eax]
	mov	DWORD PTR [ecx], edx
	mov	edx, DWORD PTR [eax+4]
	mov	DWORD PTR [ecx+4], edx
	mov	edx, DWORD PTR [eax+8]
	mov	DWORD PTR [ecx+8], edx
	mov	edx, DWORD PTR [eax+12]
	mov	DWORD PTR [ecx+12], edx
	mov	edx, DWORD PTR [eax+16]
	mov	DWORD PTR [ecx+16], edx
	mov	eax, DWORD PTR [eax+20]
	mov	DWORD PTR [ecx+20], eax
	mov	eax, DWORD PTR _this$[ebp]
	pop	edi
	pop	esi
	pop	ebx
	mov	esp, ebp
	pop	ebp
	ret	4
??4QbMap@GH3@@QAEAAU01@ABU01@@Z ENDP			; GH3::QbMap::operator=
_TEXT	ENDS
; Function compile flags: /Odtp /RTCsu /ZI
; File c:\windows\fastgh3\plugins\code\gh3\qbmap.h
;	COMDAT ?IndexMask@QbMap@GH3@@QBEIXZ
_TEXT	SEGMENT
_this$ = -8						; size = 4
?IndexMask@QbMap@GH3@@QBEIXZ PROC			; GH3::QbMap::IndexMask, COMDAT
; _this$ = ecx

; 43   : 		inline uint32_t IndexMask() const { return ( (1 << m_size) - 1); }

	push	ebp
	mov	ebp, esp
	sub	esp, 204				; 000000ccH
	push	ebx
	push	esi
	push	edi
	push	ecx
	lea	edi, DWORD PTR [ebp-204]
	mov	ecx, 51					; 00000033H
	mov	eax, -858993460				; ccccccccH
	rep stosd
	pop	ecx
	mov	DWORD PTR _this$[ebp], ecx
	mov	eax, DWORD PTR _this$[ebp]
	mov	edx, 1
	mov	ecx, DWORD PTR [eax]
	shl	edx, cl
	sub	edx, 1
	mov	eax, edx
	pop	edi
	pop	esi
	pop	ebx
	mov	esp, ebp
	pop	ebp
	ret	0
?IndexMask@QbMap@GH3@@QBEIXZ ENDP			; GH3::QbMap::IndexMask
_TEXT	ENDS
; Function compile flags: /Odtp /RTCsu /ZI
; File c:\windows\fastgh3\plugins\code\gh3\qbmap.h
;	COMDAT ?Type@QbMap@GH3@@QBE?AW4QbValueType@2@XZ
_TEXT	SEGMENT
_this$ = -8						; size = 4
?Type@QbMap@GH3@@QBE?AW4QbValueType@2@XZ PROC		; GH3::QbMap::Type, COMDAT
; _this$ = ecx

; 42   : 		inline QbValueType Type() const { return static_cast<QbValueType>(m_typeFlags >> 1); }

	push	ebp
	mov	ebp, esp
	sub	esp, 204				; 000000ccH
	push	ebx
	push	esi
	push	edi
	push	ecx
	lea	edi, DWORD PTR [ebp-204]
	mov	ecx, 51					; 00000033H
	mov	eax, -858993460				; ccccccccH
	rep stosd
	pop	ecx
	mov	DWORD PTR _this$[ebp], ecx
	mov	eax, DWORD PTR _this$[ebp]
	movsx	eax, BYTE PTR [eax+8]
	sar	eax, 1
	pop	edi
	pop	esi
	pop	ebx
	mov	esp, ebp
	pop	ebp
	ret	0
?Type@QbMap@GH3@@QBE?AW4QbValueType@2@XZ ENDP		; GH3::QbMap::Type
_TEXT	ENDS
; Function compile flags: /Odtp /RTCsu /ZI
; File c:\windows\fastgh3\plugins\code\gh3\qbmap.h
;	COMDAT ?Size@QbMap@GH3@@QBEIXZ
_TEXT	SEGMENT
_this$ = -8						; size = 4
?Size@QbMap@GH3@@QBEIXZ PROC				; GH3::QbMap::Size, COMDAT
; _this$ = ecx

; 41   : 		inline uint32_t Size() const { return m_size; }

	push	ebp
	mov	ebp, esp
	sub	esp, 204				; 000000ccH
	push	ebx
	push	esi
	push	edi
	push	ecx
	lea	edi, DWORD PTR [ebp-204]
	mov	ecx, 51					; 00000033H
	mov	eax, -858993460				; ccccccccH
	rep stosd
	pop	ecx
	mov	DWORD PTR _this$[ebp], ecx
	mov	eax, DWORD PTR _this$[ebp]
	mov	eax, DWORD PTR [eax]
	pop	edi
	pop	esi
	pop	ebx
	mov	esp, ebp
	pop	ebp
	ret	0
?Size@QbMap@GH3@@QBEIXZ ENDP				; GH3::QbMap::Size
_TEXT	ENDS
; Function compile flags: /Odtp /RTCsu /ZI
; File c:\windows\fastgh3\plugins\code\gh3\qbmap.h
;	COMDAT ?Insert@QbMap@GH3@@QAEXUQbKey@2@I@Z
_TEXT	SEGMENT
_this$ = -8						; size = 4
_key$ = 8						; size = 4
_value$ = 12						; size = 4
?Insert@QbMap@GH3@@QAEXUQbKey@2@I@Z PROC		; GH3::QbMap::Insert, COMDAT
; _this$ = ecx

; 39   : 		inline void Insert(QbKey key, uint32_t value) { this->operator[](key) = value; };

	push	ebp
	mov	ebp, esp
	sub	esp, 216				; 000000d8H
	push	ebx
	push	esi
	push	edi
	push	ecx
	lea	edi, DWORD PTR [ebp-216]
	mov	ecx, 54					; 00000036H
	mov	eax, -858993460				; ccccccccH
	rep stosd
	pop	ecx
	mov	DWORD PTR _this$[ebp], ecx
	push	ecx
	mov	ecx, esp
	lea	eax, DWORD PTR _key$[ebp]
	push	eax
	call	??0QbKey@GH3@@QAE@ABU01@@Z		; GH3::QbKey::QbKey
	mov	ecx, DWORD PTR _this$[ebp]
	call	??AQbMap@GH3@@QAEAAIUQbKey@1@@Z		; GH3::QbMap::operator[]
	mov	ecx, DWORD PTR _value$[ebp]
	mov	DWORD PTR [eax], ecx
	pop	edi
	pop	esi
	pop	ebx
	add	esp, 216				; 000000d8H
	cmp	ebp, esp
	call	__RTC_CheckEsp
	mov	esp, ebp
	pop	ebp
	ret	8
?Insert@QbMap@GH3@@QAEXUQbKey@2@I@Z ENDP		; GH3::QbMap::Insert
_TEXT	ENDS
; Function compile flags: /Odtp /RTCsu /ZI
; File c:\windows\fastgh3\plugins\code\gh3\qbmap.h
;	COMDAT ?Get@QbMap@GH3@@QBEIUQbKey@2@@Z
_TEXT	SEGMENT
_this$ = -8						; size = 4
_key$ = 8						; size = 4
?Get@QbMap@GH3@@QBEIUQbKey@2@@Z PROC			; GH3::QbMap::Get, COMDAT
; _this$ = ecx

; 38   : 		inline uint32_t Get(QbKey key) const { return (*this)[key]; };

	push	ebp
	mov	ebp, esp
	sub	esp, 216				; 000000d8H
	push	ebx
	push	esi
	push	edi
	push	ecx
	lea	edi, DWORD PTR [ebp-216]
	mov	ecx, 54					; 00000036H
	mov	eax, -858993460				; ccccccccH
	rep stosd
	pop	ecx
	mov	DWORD PTR _this$[ebp], ecx
	push	ecx
	mov	ecx, esp
	lea	eax, DWORD PTR _key$[ebp]
	push	eax
	call	??0QbKey@GH3@@QAE@ABU01@@Z		; GH3::QbKey::QbKey
	mov	ecx, DWORD PTR _this$[ebp]
	call	??AQbMap@GH3@@QBEIUQbKey@1@@Z		; GH3::QbMap::operator[]
	pop	edi
	pop	esi
	pop	ebx
	add	esp, 216				; 000000d8H
	cmp	ebp, esp
	call	__RTC_CheckEsp
	mov	esp, ebp
	pop	ebp
	ret	4
?Get@QbMap@GH3@@QBEIUQbKey@2@@Z ENDP			; GH3::QbMap::Get
_TEXT	ENDS
; Function compile flags: /Odtp /RTCsu /ZI
;	COMDAT ??4QbStruct@GH3@@QAEAAU01@ABU01@@Z
_TEXT	SEGMENT
_this$ = -8						; size = 4
___that$ = 8						; size = 4
??4QbStruct@GH3@@QAEAAU01@ABU01@@Z PROC			; GH3::QbStruct::operator=, COMDAT
; _this$ = ecx
	push	ebp
	mov	ebp, esp
	sub	esp, 204				; 000000ccH
	push	ebx
	push	esi
	push	edi
	push	ecx
	lea	edi, DWORD PTR [ebp-204]
	mov	ecx, 51					; 00000033H
	mov	eax, -858993460				; ccccccccH
	rep stosd
	pop	ecx
	mov	DWORD PTR _this$[ebp], ecx
	mov	eax, DWORD PTR ___that$[ebp]
	mov	ecx, DWORD PTR [eax]
	mov	edx, DWORD PTR [eax+4]
	mov	eax, DWORD PTR _this$[ebp]
	mov	DWORD PTR [eax], ecx
	mov	DWORD PTR [eax+4], edx
	mov	eax, DWORD PTR _this$[ebp]
	pop	edi
	pop	esi
	pop	ebx
	mov	esp, ebp
	pop	ebp
	ret	4
??4QbStruct@GH3@@QAEAAU01@ABU01@@Z ENDP			; GH3::QbStruct::operator=
_TEXT	ENDS
; Function compile flags: /Odtp /RTCsu /ZI
; File c:\windows\fastgh3\plugins\code\gh3\qbstruct.cpp
;	COMDAT ?InsertQbStructItem@QbStruct@GH3@@QAEXUQbKey@2@PAU12@@Z
_TEXT	SEGMENT
_this$ = -8						; size = 4
_qbKey$ = 8						; size = 4
_item$ = 12						; size = 4
?InsertQbStructItem@QbStruct@GH3@@QAEXUQbKey@2@PAU12@@Z PROC ; GH3::QbStruct::InsertQbStructItem, COMDAT
; _this$ = ecx

; 309  : 	void __thiscall QbStruct::InsertQbStructItem(QbKey qbKey, QbStruct *item) {

	push	ebp
	mov	ebp, esp
	sub	esp, 216				; 000000d8H
	push	ebx
	push	esi
	push	edi
	push	ecx
	lea	edi, DWORD PTR [ebp-216]
	mov	ecx, 54					; 00000036H
	mov	eax, -858993460				; ccccccccH
	rep stosd
	pop	ecx
	mov	DWORD PTR _this$[ebp], ecx

; 310  : 		NativeInsertCall<0x00479E40, QbStruct *>(this, qbKey, item);

	mov	eax, DWORD PTR _item$[ebp]
	push	eax
	push	ecx
	mov	ecx, esp
	lea	edx, DWORD PTR _qbKey$[ebp]
	push	edx
	call	??0QbKey@GH3@@QAE@ABU01@@Z		; GH3::QbKey::QbKey
	mov	eax, DWORD PTR _this$[ebp]
	push	eax
	call	??$NativeInsertCall@$0EHJOEA@PAUQbStruct@GH3@@@GH3@@YGXPAUQbStruct@0@UQbKey@0@0@Z ; GH3::NativeInsertCall<4693568,GH3::QbStruct *>

; 311  : 	}

	pop	edi
	pop	esi
	pop	ebx
	add	esp, 216				; 000000d8H
	cmp	ebp, esp
	call	__RTC_CheckEsp
	mov	esp, ebp
	pop	ebp
	ret	8
?InsertQbStructItem@QbStruct@GH3@@QAEXUQbKey@2@PAU12@@Z ENDP ; GH3::QbStruct::InsertQbStructItem
_TEXT	ENDS
; Function compile flags: /Odtp /RTCsu /ZI
; File c:\windows\fastgh3\plugins\code\gh3\qbstruct.cpp
;	COMDAT ?InsertQbArrayItem@QbStruct@GH3@@QAEXUQbKey@2@PAUQbArray@2@@Z
_TEXT	SEGMENT
_this$ = -8						; size = 4
_qbKey$ = 8						; size = 4
_item$ = 12						; size = 4
?InsertQbArrayItem@QbStruct@GH3@@QAEXUQbKey@2@PAUQbArray@2@@Z PROC ; GH3::QbStruct::InsertQbArrayItem, COMDAT
; _this$ = ecx

; 306  : 	void __thiscall QbStruct::InsertQbArrayItem(QbKey qbKey, QbArray *item) {

	push	ebp
	mov	ebp, esp
	sub	esp, 216				; 000000d8H
	push	ebx
	push	esi
	push	edi
	push	ecx
	lea	edi, DWORD PTR [ebp-216]
	mov	ecx, 54					; 00000036H
	mov	eax, -858993460				; ccccccccH
	rep stosd
	pop	ecx
	mov	DWORD PTR _this$[ebp], ecx

; 307  : 		NativeInsertCall<0x00479DF0, QbArray *>(this, qbKey, item);

	mov	eax, DWORD PTR _item$[ebp]
	push	eax
	push	ecx
	mov	ecx, esp
	lea	edx, DWORD PTR _qbKey$[ebp]
	push	edx
	call	??0QbKey@GH3@@QAE@ABU01@@Z		; GH3::QbKey::QbKey
	mov	eax, DWORD PTR _this$[ebp]
	push	eax
	call	??$NativeInsertCall@$0EHJNPA@PAUQbArray@GH3@@@GH3@@YGXPAUQbStruct@0@UQbKey@0@PAUQbArray@0@@Z ; GH3::NativeInsertCall<4693488,GH3::QbArray *>

; 308  : 	}

	pop	edi
	pop	esi
	pop	ebx
	add	esp, 216				; 000000d8H
	cmp	ebp, esp
	call	__RTC_CheckEsp
	mov	esp, ebp
	pop	ebp
	ret	8
?InsertQbArrayItem@QbStruct@GH3@@QAEXUQbKey@2@PAUQbArray@2@@Z ENDP ; GH3::QbStruct::InsertQbArrayItem
_TEXT	ENDS
; Function compile flags: /Odtp /RTCsu /ZI
; File c:\windows\fastgh3\plugins\code\gh3\qbstruct.cpp
;	COMDAT ?InsertPairItem@QbStruct@GH3@@QAEXUQbKey@2@PAUQbPair@2@@Z
_TEXT	SEGMENT
_this$ = -8						; size = 4
_qbKey$ = 8						; size = 4
_item$ = 12						; size = 4
?InsertPairItem@QbStruct@GH3@@QAEXUQbKey@2@PAUQbPair@2@@Z PROC ; GH3::QbStruct::InsertPairItem, COMDAT
; _this$ = ecx

; 303  : 	void __thiscall QbStruct::InsertPairItem(QbKey qbKey, QbPair *item) {

	push	ebp
	mov	ebp, esp
	sub	esp, 216				; 000000d8H
	push	ebx
	push	esi
	push	edi
	push	ecx
	lea	edi, DWORD PTR [ebp-216]
	mov	ecx, 54					; 00000036H
	mov	eax, -858993460				; ccccccccH
	rep stosd
	pop	ecx
	mov	DWORD PTR _this$[ebp], ecx

; 304  : 		NativeInsertCall<0x00479D60, QbPair *>(this, qbKey, item);

	mov	eax, DWORD PTR _item$[ebp]
	push	eax
	push	ecx
	mov	ecx, esp
	lea	edx, DWORD PTR _qbKey$[ebp]
	push	edx
	call	??0QbKey@GH3@@QAE@ABU01@@Z		; GH3::QbKey::QbKey
	mov	eax, DWORD PTR _this$[ebp]
	push	eax
	call	??$NativeInsertCall@$0EHJNGA@PAUQbPair@GH3@@@GH3@@YGXPAUQbStruct@0@UQbKey@0@PAUQbPair@0@@Z ; GH3::NativeInsertCall<4693344,GH3::QbPair *>

; 305  : 	}

	pop	edi
	pop	esi
	pop	ebx
	add	esp, 216				; 000000d8H
	cmp	ebp, esp
	call	__RTC_CheckEsp
	mov	esp, ebp
	pop	ebp
	ret	8
?InsertPairItem@QbStruct@GH3@@QAEXUQbKey@2@PAUQbPair@2@@Z ENDP ; GH3::QbStruct::InsertPairItem
_TEXT	ENDS
; Function compile flags: /Odtp /RTCsu /ZI
; File c:\windows\fastgh3\plugins\code\gh3\qbstruct.cpp
;	COMDAT ?InsertVectorItem@QbStruct@GH3@@QAEXUQbKey@2@PAUQbVector@2@@Z
_TEXT	SEGMENT
_this$ = -8						; size = 4
_qbKey$ = 8						; size = 4
_item$ = 12						; size = 4
?InsertVectorItem@QbStruct@GH3@@QAEXUQbKey@2@PAUQbVector@2@@Z PROC ; GH3::QbStruct::InsertVectorItem, COMDAT
; _this$ = ecx

; 300  : 	void __thiscall QbStruct::InsertVectorItem(QbKey qbKey, QbVector *item) {

	push	ebp
	mov	ebp, esp
	sub	esp, 216				; 000000d8H
	push	ebx
	push	esi
	push	edi
	push	ecx
	lea	edi, DWORD PTR [ebp-216]
	mov	ecx, 54					; 00000036H
	mov	eax, -858993460				; ccccccccH
	rep stosd
	pop	ecx
	mov	DWORD PTR _this$[ebp], ecx

; 301  : 		NativeInsertCall<0x00479CD0, QbVector *>(this, qbKey, item);

	mov	eax, DWORD PTR _item$[ebp]
	push	eax
	push	ecx
	mov	ecx, esp
	lea	edx, DWORD PTR _qbKey$[ebp]
	push	edx
	call	??0QbKey@GH3@@QAE@ABU01@@Z		; GH3::QbKey::QbKey
	mov	eax, DWORD PTR _this$[ebp]
	push	eax
	call	??$NativeInsertCall@$0EHJMNA@PAUQbVector@GH3@@@GH3@@YGXPAUQbStruct@0@UQbKey@0@PAUQbVector@0@@Z ; GH3::NativeInsertCall<4693200,GH3::QbVector *>

; 302  : 	}

	pop	edi
	pop	esi
	pop	ebx
	add	esp, 216				; 000000d8H
	cmp	ebp, esp
	call	__RTC_CheckEsp
	mov	esp, ebp
	pop	ebp
	ret	8
?InsertVectorItem@QbStruct@GH3@@QAEXUQbKey@2@PAUQbVector@2@@Z ENDP ; GH3::QbStruct::InsertVectorItem
_TEXT	ENDS
; Function compile flags: /Odtp /RTCsu /ZI
; File c:\windows\fastgh3\plugins\code\gh3\qbstruct.cpp
;	COMDAT ?InsertQbKeyItem@QbStruct@GH3@@QAEXUQbKey@2@0@Z
_TEXT	SEGMENT
_this$ = -8						; size = 4
_qbKey$ = 8						; size = 4
_item$ = 12						; size = 4
?InsertQbKeyItem@QbStruct@GH3@@QAEXUQbKey@2@0@Z PROC	; GH3::QbStruct::InsertQbKeyItem, COMDAT
; _this$ = ecx

; 297  : 	void __thiscall QbStruct::InsertQbKeyItem(QbKey qbKey, QbKey item) {

	push	ebp
	mov	ebp, esp
	sub	esp, 228				; 000000e4H
	push	ebx
	push	esi
	push	edi
	push	ecx
	lea	edi, DWORD PTR [ebp-228]
	mov	ecx, 57					; 00000039H
	mov	eax, -858993460				; ccccccccH
	rep stosd
	pop	ecx
	mov	DWORD PTR _this$[ebp], ecx

; 298  : 		NativeInsertCall<0x00479C80, QbKey>(this, qbKey, item);

	push	ecx
	mov	ecx, esp
	lea	eax, DWORD PTR _item$[ebp]
	push	eax
	call	??0QbKey@GH3@@QAE@ABU01@@Z		; GH3::QbKey::QbKey
	push	ecx
	mov	ecx, esp
	lea	edx, DWORD PTR _qbKey$[ebp]
	push	edx
	call	??0QbKey@GH3@@QAE@ABU01@@Z		; GH3::QbKey::QbKey
	mov	eax, DWORD PTR _this$[ebp]
	push	eax
	call	??$NativeInsertCall@$0EHJMIA@UQbKey@GH3@@@GH3@@YGXPAUQbStruct@0@UQbKey@0@1@Z ; GH3::NativeInsertCall<4693120,GH3::QbKey>

; 299  : 	}

	pop	edi
	pop	esi
	pop	ebx
	add	esp, 228				; 000000e4H
	cmp	ebp, esp
	call	__RTC_CheckEsp
	mov	esp, ebp
	pop	ebp
	ret	8
?InsertQbKeyItem@QbStruct@GH3@@QAEXUQbKey@2@0@Z ENDP	; GH3::QbStruct::InsertQbKeyItem
_TEXT	ENDS
; Function compile flags: /Odtp /RTCsu /ZI
; File c:\windows\fastgh3\plugins\code\gh3\qbstruct.cpp
;	COMDAT ?InsertFloatItem@QbStruct@GH3@@QAEXUQbKey@2@M@Z
_TEXT	SEGMENT
_this$ = -8						; size = 4
_qbKey$ = 8						; size = 4
_item$ = 12						; size = 4
?InsertFloatItem@QbStruct@GH3@@QAEXUQbKey@2@M@Z PROC	; GH3::QbStruct::InsertFloatItem, COMDAT
; _this$ = ecx

; 294  : 	void __thiscall QbStruct::InsertFloatItem(QbKey qbKey, float item) {

	push	ebp
	mov	ebp, esp
	sub	esp, 216				; 000000d8H
	push	ebx
	push	esi
	push	edi
	push	ecx
	lea	edi, DWORD PTR [ebp-216]
	mov	ecx, 54					; 00000036H
	mov	eax, -858993460				; ccccccccH
	rep stosd
	pop	ecx
	mov	DWORD PTR _this$[ebp], ecx

; 295  : 		NativeInsertCall<0x00479C20, float>(this, qbKey, item);

	push	ecx
	movss	xmm0, DWORD PTR _item$[ebp]
	movss	DWORD PTR [esp], xmm0
	push	ecx
	mov	ecx, esp
	lea	eax, DWORD PTR _qbKey$[ebp]
	push	eax
	call	??0QbKey@GH3@@QAE@ABU01@@Z		; GH3::QbKey::QbKey
	mov	ecx, DWORD PTR _this$[ebp]
	push	ecx
	call	??$NativeInsertCall@$0EHJMCA@M@GH3@@YGXPAUQbStruct@0@UQbKey@0@M@Z ; GH3::NativeInsertCall<4693024,float>

; 296  : 	}

	pop	edi
	pop	esi
	pop	ebx
	add	esp, 216				; 000000d8H
	cmp	ebp, esp
	call	__RTC_CheckEsp
	mov	esp, ebp
	pop	ebp
	ret	8
?InsertFloatItem@QbStruct@GH3@@QAEXUQbKey@2@M@Z ENDP	; GH3::QbStruct::InsertFloatItem
_TEXT	ENDS
; Function compile flags: /Odtp /RTCsu /ZI
; File c:\windows\fastgh3\plugins\code\gh3\qbstruct.cpp
;	COMDAT ?InsertUIntItem@QbStruct@GH3@@QAEXUQbKey@2@I@Z
_TEXT	SEGMENT
_this$ = -8						; size = 4
_qbKey$ = 8						; size = 4
_item$ = 12						; size = 4
?InsertUIntItem@QbStruct@GH3@@QAEXUQbKey@2@I@Z PROC	; GH3::QbStruct::InsertUIntItem, COMDAT
; _this$ = ecx

; 291  : 	void __thiscall QbStruct::InsertUIntItem(QbKey qbKey, uint32_t item) {

	push	ebp
	mov	ebp, esp
	sub	esp, 216				; 000000d8H
	push	ebx
	push	esi
	push	edi
	push	ecx
	lea	edi, DWORD PTR [ebp-216]
	mov	ecx, 54					; 00000036H
	mov	eax, -858993460				; ccccccccH
	rep stosd
	pop	ecx
	mov	DWORD PTR _this$[ebp], ecx

; 292  : 		NativeInsertCall<0x00479BD0, uint32_t>(this, qbKey, item);

	mov	eax, DWORD PTR _item$[ebp]
	push	eax
	push	ecx
	mov	ecx, esp
	lea	edx, DWORD PTR _qbKey$[ebp]
	push	edx
	call	??0QbKey@GH3@@QAE@ABU01@@Z		; GH3::QbKey::QbKey
	mov	eax, DWORD PTR _this$[ebp]
	push	eax
	call	??$NativeInsertCall@$0EHJLNA@I@GH3@@YGXPAUQbStruct@0@UQbKey@0@I@Z ; GH3::NativeInsertCall<4692944,unsigned int>

; 293  : 	}

	pop	edi
	pop	esi
	pop	ebx
	add	esp, 216				; 000000d8H
	cmp	ebp, esp
	call	__RTC_CheckEsp
	mov	esp, ebp
	pop	ebp
	ret	8
?InsertUIntItem@QbStruct@GH3@@QAEXUQbKey@2@I@Z ENDP	; GH3::QbStruct::InsertUIntItem
_TEXT	ENDS
; Function compile flags: /Odtp /RTCsu /ZI
; File c:\windows\fastgh3\plugins\code\gh3\qbstruct.cpp
;	COMDAT ?InsertIntItem@QbStruct@GH3@@QAEXUQbKey@2@H@Z
_TEXT	SEGMENT
_this$ = -8						; size = 4
_qbKey$ = 8						; size = 4
_item$ = 12						; size = 4
?InsertIntItem@QbStruct@GH3@@QAEXUQbKey@2@H@Z PROC	; GH3::QbStruct::InsertIntItem, COMDAT
; _this$ = ecx

; 288  : 	void __thiscall QbStruct::InsertIntItem(QbKey qbKey, int32_t item) {

	push	ebp
	mov	ebp, esp
	sub	esp, 216				; 000000d8H
	push	ebx
	push	esi
	push	edi
	push	ecx
	lea	edi, DWORD PTR [ebp-216]
	mov	ecx, 54					; 00000036H
	mov	eax, -858993460				; ccccccccH
	rep stosd
	pop	ecx
	mov	DWORD PTR _this$[ebp], ecx

; 289  : 		NativeInsertCall<0x00479BD0, int32_t>(this, qbKey, item);

	mov	eax, DWORD PTR _item$[ebp]
	push	eax
	push	ecx
	mov	ecx, esp
	lea	edx, DWORD PTR _qbKey$[ebp]
	push	edx
	call	??0QbKey@GH3@@QAE@ABU01@@Z		; GH3::QbKey::QbKey
	mov	eax, DWORD PTR _this$[ebp]
	push	eax
	call	??$NativeInsertCall@$0EHJLNA@H@GH3@@YGXPAUQbStruct@0@UQbKey@0@H@Z ; GH3::NativeInsertCall<4692944,int>

; 290  : 	}

	pop	edi
	pop	esi
	pop	ebx
	add	esp, 216				; 000000d8H
	cmp	ebp, esp
	call	__RTC_CheckEsp
	mov	esp, ebp
	pop	ebp
	ret	8
?InsertIntItem@QbStruct@GH3@@QAEXUQbKey@2@H@Z ENDP	; GH3::QbStruct::InsertIntItem
_TEXT	ENDS
; Function compile flags: /Odtp /RTCsu /ZI
; File c:\windows\fastgh3\plugins\code\gh3\qbstruct.cpp
;	COMDAT ?InsertStringPointerItem@QbStruct@GH3@@QAEXUQbKey@2@I@Z
_TEXT	SEGMENT
_this$ = -8						; size = 4
_qbKey$ = 8						; size = 4
_item$ = 12						; size = 4
?InsertStringPointerItem@QbStruct@GH3@@QAEXUQbKey@2@I@Z PROC ; GH3::QbStruct::InsertStringPointerItem, COMDAT
; _this$ = ecx

; 285  : 	void __thiscall QbStruct::InsertStringPointerItem(QbKey qbKey, uint32_t item) {

	push	ebp
	mov	ebp, esp
	sub	esp, 216				; 000000d8H
	push	ebx
	push	esi
	push	edi
	push	ecx
	lea	edi, DWORD PTR [ebp-216]
	mov	ecx, 54					; 00000036H
	mov	eax, -858993460				; ccccccccH
	rep stosd
	pop	ecx
	mov	DWORD PTR _this$[ebp], ecx

; 286  : 		NativeInsertCall<0x00479B80, uint32_t>(this, qbKey, item);

	mov	eax, DWORD PTR _item$[ebp]
	push	eax
	push	ecx
	mov	ecx, esp
	lea	edx, DWORD PTR _qbKey$[ebp]
	push	edx
	call	??0QbKey@GH3@@QAE@ABU01@@Z		; GH3::QbKey::QbKey
	mov	eax, DWORD PTR _this$[ebp]
	push	eax
	call	??$NativeInsertCall@$0EHJLIA@I@GH3@@YGXPAUQbStruct@0@UQbKey@0@I@Z ; GH3::NativeInsertCall<4692864,unsigned int>

; 287  : 	}

	pop	edi
	pop	esi
	pop	ebx
	add	esp, 216				; 000000d8H
	cmp	ebp, esp
	call	__RTC_CheckEsp
	mov	esp, ebp
	pop	ebp
	ret	8
?InsertStringPointerItem@QbStruct@GH3@@QAEXUQbKey@2@I@Z ENDP ; GH3::QbStruct::InsertStringPointerItem
_TEXT	ENDS
; Function compile flags: /Odtp /RTCsu /ZI
; File c:\windows\fastgh3\plugins\code\gh3\qbstruct.cpp
;	COMDAT ?InsertWStringItem@QbStruct@GH3@@QAEXUQbKey@2@PA_W@Z
_TEXT	SEGMENT
_this$ = -8						; size = 4
_qbKey$ = 8						; size = 4
_item$ = 12						; size = 4
?InsertWStringItem@QbStruct@GH3@@QAEXUQbKey@2@PA_W@Z PROC ; GH3::QbStruct::InsertWStringItem, COMDAT
; _this$ = ecx

; 282  : 	void __thiscall QbStruct::InsertWStringItem(QbKey qbKey, wchar_t *item) {

	push	ebp
	mov	ebp, esp
	sub	esp, 216				; 000000d8H
	push	ebx
	push	esi
	push	edi
	push	ecx
	lea	edi, DWORD PTR [ebp-216]
	mov	ecx, 54					; 00000036H
	mov	eax, -858993460				; ccccccccH
	rep stosd
	pop	ecx
	mov	DWORD PTR _this$[ebp], ecx

; 283  : 		NativeInsertCall<0x00479B20, wchar_t *>(this, qbKey, item);

	mov	eax, DWORD PTR _item$[ebp]
	push	eax
	push	ecx
	mov	ecx, esp
	lea	edx, DWORD PTR _qbKey$[ebp]
	push	edx
	call	??0QbKey@GH3@@QAE@ABU01@@Z		; GH3::QbKey::QbKey
	mov	eax, DWORD PTR _this$[ebp]
	push	eax
	call	??$NativeInsertCall@$0EHJLCA@PA_W@GH3@@YGXPAUQbStruct@0@UQbKey@0@PA_W@Z ; GH3::NativeInsertCall<4692768,wchar_t *>

; 284  : 	}

	pop	edi
	pop	esi
	pop	ebx
	add	esp, 216				; 000000d8H
	cmp	ebp, esp
	call	__RTC_CheckEsp
	mov	esp, ebp
	pop	ebp
	ret	8
?InsertWStringItem@QbStruct@GH3@@QAEXUQbKey@2@PA_W@Z ENDP ; GH3::QbStruct::InsertWStringItem
_TEXT	ENDS
; Function compile flags: /Odtp /RTCsu /ZI
; File c:\windows\fastgh3\plugins\code\gh3\qbstruct.cpp
;	COMDAT ?InsertCStringItem@QbStruct@GH3@@QAEXUQbKey@2@PAD@Z
_TEXT	SEGMENT
_this$ = -8						; size = 4
_qbKey$ = 8						; size = 4
_item$ = 12						; size = 4
?InsertCStringItem@QbStruct@GH3@@QAEXUQbKey@2@PAD@Z PROC ; GH3::QbStruct::InsertCStringItem, COMDAT
; _this$ = ecx

; 279  : 	void __thiscall QbStruct::InsertCStringItem(QbKey qbKey, char *item) {

	push	ebp
	mov	ebp, esp
	sub	esp, 216				; 000000d8H
	push	ebx
	push	esi
	push	edi
	push	ecx
	lea	edi, DWORD PTR [ebp-216]
	mov	ecx, 54					; 00000036H
	mov	eax, -858993460				; ccccccccH
	rep stosd
	pop	ecx
	mov	DWORD PTR _this$[ebp], ecx

; 280  : 		NativeInsertCall<0x00479AC0, char *>(this, qbKey, item);

	mov	eax, DWORD PTR _item$[ebp]
	push	eax
	push	ecx
	mov	ecx, esp
	lea	edx, DWORD PTR _qbKey$[ebp]
	push	edx
	call	??0QbKey@GH3@@QAE@ABU01@@Z		; GH3::QbKey::QbKey
	mov	eax, DWORD PTR _this$[ebp]
	push	eax
	call	??$NativeInsertCall@$0EHJKMA@PAD@GH3@@YGXPAUQbStruct@0@UQbKey@0@PAD@Z ; GH3::NativeInsertCall<4692672,char *>

; 281  : 	}

	pop	edi
	pop	esi
	pop	ebx
	add	esp, 216				; 000000d8H
	cmp	ebp, esp
	call	__RTC_CheckEsp
	mov	esp, ebp
	pop	ebp
	ret	8
?InsertCStringItem@QbStruct@GH3@@QAEXUQbKey@2@PAD@Z ENDP ; GH3::QbStruct::InsertCStringItem
_TEXT	ENDS
; Function compile flags: /Odtp /RTCsu /ZI
; File c:\windows\fastgh3\plugins\code\gh3\qbstruct.cpp
;	COMDAT ?ContainsItem@QbStruct@GH3@@QAE_NUQbKey@2@W4QbValueType@2@@Z
_TEXT	SEGMENT
tv77 = -220						; size = 4
_this$ = -8						; size = 4
_qbKey$ = 8						; size = 4
_type$ = 12						; size = 1
?ContainsItem@QbStruct@GH3@@QAE_NUQbKey@2@W4QbValueType@2@@Z PROC ; GH3::QbStruct::ContainsItem, COMDAT
; _this$ = ecx

; 251  : 	{

	push	ebp
	mov	ebp, esp
	sub	esp, 220				; 000000dcH
	push	ebx
	push	esi
	push	edi
	push	ecx
	lea	edi, DWORD PTR [ebp-220]
	mov	ecx, 55					; 00000037H
	mov	eax, -858993460				; ccccccccH
	rep stosd
	pop	ecx
	mov	DWORD PTR _this$[ebp], ecx

; 252  : 		return (GetItem(qbKey) != nullptr);

	push	ecx
	mov	ecx, esp
	lea	eax, DWORD PTR _qbKey$[ebp]
	push	eax
	call	??0QbKey@GH3@@QAE@ABU01@@Z		; GH3::QbKey::QbKey
	mov	ecx, DWORD PTR _this$[ebp]
	call	?GetItem@QbStruct@GH3@@QAEPAUQbStructItem@2@UQbKey@2@@Z ; GH3::QbStruct::GetItem
	test	eax, eax
	je	SHORT $LN3@ContainsIt
	mov	DWORD PTR tv77[ebp], 1
	jmp	SHORT $LN4@ContainsIt
$LN3@ContainsIt:
	mov	DWORD PTR tv77[ebp], 0
$LN4@ContainsIt:
	mov	al, BYTE PTR tv77[ebp]

; 253  : 	}

	pop	edi
	pop	esi
	pop	ebx
	add	esp, 220				; 000000dcH
	cmp	ebp, esp
	call	__RTC_CheckEsp
	mov	esp, ebp
	pop	ebp
	ret	8
?ContainsItem@QbStruct@GH3@@QAE_NUQbKey@2@W4QbValueType@2@@Z ENDP ; GH3::QbStruct::ContainsItem
_TEXT	ENDS
; Function compile flags: /Odtp /RTCsu /ZI
; File c:\windows\fastgh3\plugins\code\gh3\qbstruct.cpp
;	COMDAT ?ContainsItem@QbStruct@GH3@@QAE_NUQbKey@2@@Z
_TEXT	SEGMENT
tv77 = -220						; size = 4
_this$ = -8						; size = 4
_qbKey$ = 8						; size = 4
?ContainsItem@QbStruct@GH3@@QAE_NUQbKey@2@@Z PROC	; GH3::QbStruct::ContainsItem, COMDAT
; _this$ = ecx

; 246  : 	{

	push	ebp
	mov	ebp, esp
	sub	esp, 220				; 000000dcH
	push	ebx
	push	esi
	push	edi
	push	ecx
	lea	edi, DWORD PTR [ebp-220]
	mov	ecx, 55					; 00000037H
	mov	eax, -858993460				; ccccccccH
	rep stosd
	pop	ecx
	mov	DWORD PTR _this$[ebp], ecx

; 247  : 		return (GetItem(qbKey) != nullptr);

	push	ecx
	mov	ecx, esp
	lea	eax, DWORD PTR _qbKey$[ebp]
	push	eax
	call	??0QbKey@GH3@@QAE@ABU01@@Z		; GH3::QbKey::QbKey
	mov	ecx, DWORD PTR _this$[ebp]
	call	?GetItem@QbStruct@GH3@@QAEPAUQbStructItem@2@UQbKey@2@@Z ; GH3::QbStruct::GetItem
	test	eax, eax
	je	SHORT $LN3@ContainsIt
	mov	DWORD PTR tv77[ebp], 1
	jmp	SHORT $LN4@ContainsIt
$LN3@ContainsIt:
	mov	DWORD PTR tv77[ebp], 0
$LN4@ContainsIt:
	mov	al, BYTE PTR tv77[ebp]

; 248  : 	}

	pop	edi
	pop	esi
	pop	ebx
	add	esp, 220				; 000000dcH
	cmp	ebp, esp
	call	__RTC_CheckEsp
	mov	esp, ebp
	pop	ebp
	ret	4
?ContainsItem@QbStruct@GH3@@QAE_NUQbKey@2@@Z ENDP	; GH3::QbStruct::ContainsItem
_TEXT	ENDS
; Function compile flags: /Odtp /RTCsu /ZI
; File c:\windows\fastgh3\plugins\code\gh3\qbstruct.cpp
;	COMDAT ?GetItem@QbStruct@GH3@@QAEPAUQbStructItem@2@UQbKey@2@W4QbValueType@2@@Z
_TEXT	SEGMENT
_item$ = -20						; size = 4
_this$ = -8						; size = 4
_qbKey$ = 8						; size = 4
_type$ = 12						; size = 1
?GetItem@QbStruct@GH3@@QAEPAUQbStructItem@2@UQbKey@2@W4QbValueType@2@@Z PROC ; GH3::QbStruct::GetItem, COMDAT
; _this$ = ecx

; 234  : 	{

	push	ebp
	mov	ebp, esp
	sub	esp, 216				; 000000d8H
	push	ebx
	push	esi
	push	edi
	push	ecx
	lea	edi, DWORD PTR [ebp-216]
	mov	ecx, 54					; 00000036H
	mov	eax, -858993460				; ccccccccH
	rep stosd
	pop	ecx
	mov	DWORD PTR _this$[ebp], ecx

; 235  : 		QbStructItem *item = this->first;

	mov	eax, DWORD PTR _this$[ebp]
	mov	ecx, DWORD PTR [eax+4]
	mov	DWORD PTR _item$[ebp], ecx
$LN2@GetItem:

; 236  : 		while (item != nullptr)

	cmp	DWORD PTR _item$[ebp], 0
	je	SHORT $LN3@GetItem

; 237  : 		{
; 238  : 			if (item->key == qbKey && item->Type() == type)

	lea	ecx, DWORD PTR _qbKey$[ebp]
	call	??BQbKey@GH3@@QBEIXZ			; GH3::QbKey::operator unsigned int
	mov	ecx, DWORD PTR _item$[ebp]
	cmp	DWORD PTR [ecx+4], eax
	jne	SHORT $LN4@GetItem
	mov	ecx, DWORD PTR _item$[ebp]
	call	?Type@QbStructItem@GH3@@QAE?AW4QbValueType@2@XZ ; GH3::QbStructItem::Type
	movsx	eax, al
	movsx	ecx, BYTE PTR _type$[ebp]
	cmp	eax, ecx
	jne	SHORT $LN4@GetItem

; 239  : 				return item;

	mov	eax, DWORD PTR _item$[ebp]
	jmp	SHORT $LN1@GetItem
$LN4@GetItem:

; 240  : 			item = item->next;

	mov	eax, DWORD PTR _item$[ebp]
	mov	ecx, DWORD PTR [eax+12]
	mov	DWORD PTR _item$[ebp], ecx

; 241  : 		}

	jmp	SHORT $LN2@GetItem
$LN3@GetItem:

; 242  : 		return nullptr;

	xor	eax, eax
$LN1@GetItem:

; 243  : 	}

	pop	edi
	pop	esi
	pop	ebx
	add	esp, 216				; 000000d8H
	cmp	ebp, esp
	call	__RTC_CheckEsp
	mov	esp, ebp
	pop	ebp
	ret	8
?GetItem@QbStruct@GH3@@QAEPAUQbStructItem@2@UQbKey@2@W4QbValueType@2@@Z ENDP ; GH3::QbStruct::GetItem
_TEXT	ENDS
; Function compile flags: /Odtp /RTCsu /ZI
; File c:\windows\fastgh3\plugins\code\gh3\qbstruct.cpp
;	COMDAT ?GetItem@QbStruct@GH3@@QAEPAUQbStructItem@2@UQbKey@2@@Z
_TEXT	SEGMENT
_item$ = -20						; size = 4
_this$ = -8						; size = 4
_qbKey$ = 8						; size = 4
?GetItem@QbStruct@GH3@@QAEPAUQbStructItem@2@UQbKey@2@@Z PROC ; GH3::QbStruct::GetItem, COMDAT
; _this$ = ecx

; 222  : 	{

	push	ebp
	mov	ebp, esp
	sub	esp, 216				; 000000d8H
	push	ebx
	push	esi
	push	edi
	push	ecx
	lea	edi, DWORD PTR [ebp-216]
	mov	ecx, 54					; 00000036H
	mov	eax, -858993460				; ccccccccH
	rep stosd
	pop	ecx
	mov	DWORD PTR _this$[ebp], ecx

; 223  : 		QbStructItem *item = this->first;

	mov	eax, DWORD PTR _this$[ebp]
	mov	ecx, DWORD PTR [eax+4]
	mov	DWORD PTR _item$[ebp], ecx
$LN2@GetItem:

; 224  : 		while (item != nullptr)

	cmp	DWORD PTR _item$[ebp], 0
	je	SHORT $LN3@GetItem

; 225  : 		{
; 226  : 			if (item->key == qbKey)

	lea	ecx, DWORD PTR _qbKey$[ebp]
	call	??BQbKey@GH3@@QBEIXZ			; GH3::QbKey::operator unsigned int
	mov	ecx, DWORD PTR _item$[ebp]
	cmp	DWORD PTR [ecx+4], eax
	jne	SHORT $LN4@GetItem

; 227  : 				return item;

	mov	eax, DWORD PTR _item$[ebp]
	jmp	SHORT $LN1@GetItem
$LN4@GetItem:

; 228  : 			item = item->next;

	mov	eax, DWORD PTR _item$[ebp]
	mov	ecx, DWORD PTR [eax+12]
	mov	DWORD PTR _item$[ebp], ecx

; 229  : 		}

	jmp	SHORT $LN2@GetItem
$LN3@GetItem:

; 230  : 		return nullptr;

	xor	eax, eax
$LN1@GetItem:

; 231  : 	}

	pop	edi
	pop	esi
	pop	ebx
	add	esp, 216				; 000000d8H
	cmp	ebp, esp
	call	__RTC_CheckEsp
	mov	esp, ebp
	pop	ebp
	ret	4
?GetItem@QbStruct@GH3@@QAEPAUQbStructItem@2@UQbKey@2@@Z ENDP ; GH3::QbStruct::GetItem
_TEXT	ENDS
; Function compile flags: /Odtp /RTCsu /ZI
; File c:\windows\fastgh3\plugins\code\gh3\qbstruct.cpp
;	COMDAT ?GetQbKey@QbStruct@GH3@@QAE_NUQbKey@2@AAU32@@Z
_TEXT	SEGMENT
_this$ = -8						; size = 4
_qbKey$ = 8						; size = 4
_value$ = 12						; size = 4
?GetQbKey@QbStruct@GH3@@QAE_NUQbKey@2@AAU32@@Z PROC	; GH3::QbStruct::GetQbKey, COMDAT
; _this$ = ecx

; 217  : 	{

	push	ebp
	mov	ebp, esp
	sub	esp, 216				; 000000d8H
	push	ebx
	push	esi
	push	edi
	push	ecx
	lea	edi, DWORD PTR [ebp-216]
	mov	ecx, 54					; 00000036H
	mov	eax, -858993460				; ccccccccH
	rep stosd
	pop	ecx
	mov	DWORD PTR _this$[ebp], ecx

; 218  : 		return GetTypedValue(qbKey, QbValueType::TypeQbKey, &value);

	mov	eax, DWORD PTR _value$[ebp]
	push	eax
	push	13					; 0000000dH
	push	ecx
	mov	ecx, esp
	lea	edx, DWORD PTR _qbKey$[ebp]
	push	edx
	call	??0QbKey@GH3@@QAE@ABU01@@Z		; GH3::QbKey::QbKey
	mov	ecx, DWORD PTR _this$[ebp]
	call	?GetTypedValue@QbStruct@GH3@@QAE_NUQbKey@2@W4QbValueType@2@PAX@Z ; GH3::QbStruct::GetTypedValue

; 219  : 	}

	pop	edi
	pop	esi
	pop	ebx
	add	esp, 216				; 000000d8H
	cmp	ebp, esp
	call	__RTC_CheckEsp
	mov	esp, ebp
	pop	ebp
	ret	8
?GetQbKey@QbStruct@GH3@@QAE_NUQbKey@2@AAU32@@Z ENDP	; GH3::QbStruct::GetQbKey
_TEXT	ENDS
; Function compile flags: /Odtp /RTCsu /ZI
; File c:\windows\fastgh3\plugins\code\gh3\qbstruct.cpp
;	COMDAT ?GetArray@QbStruct@GH3@@QAE_NUQbKey@2@AAUQbArray@2@@Z
_TEXT	SEGMENT
_this$ = -8						; size = 4
_qbKey$ = 8						; size = 4
_value$ = 12						; size = 4
?GetArray@QbStruct@GH3@@QAE_NUQbKey@2@AAUQbArray@2@@Z PROC ; GH3::QbStruct::GetArray, COMDAT
; _this$ = ecx

; 213  : 	{

	push	ebp
	mov	ebp, esp
	sub	esp, 216				; 000000d8H
	push	ebx
	push	esi
	push	edi
	push	ecx
	lea	edi, DWORD PTR [ebp-216]
	mov	ecx, 54					; 00000036H
	mov	eax, -858993460				; ccccccccH
	rep stosd
	pop	ecx
	mov	DWORD PTR _this$[ebp], ecx

; 214  : 		return GetTypedValue(qbKey, QbValueType::TypeQbArray, &value);

	mov	eax, DWORD PTR _value$[ebp]
	push	eax
	push	12					; 0000000cH
	push	ecx
	mov	ecx, esp
	lea	edx, DWORD PTR _qbKey$[ebp]
	push	edx
	call	??0QbKey@GH3@@QAE@ABU01@@Z		; GH3::QbKey::QbKey
	mov	ecx, DWORD PTR _this$[ebp]
	call	?GetTypedValue@QbStruct@GH3@@QAE_NUQbKey@2@W4QbValueType@2@PAX@Z ; GH3::QbStruct::GetTypedValue

; 215  : 	}

	pop	edi
	pop	esi
	pop	ebx
	add	esp, 216				; 000000d8H
	cmp	ebp, esp
	call	__RTC_CheckEsp
	mov	esp, ebp
	pop	ebp
	ret	8
?GetArray@QbStruct@GH3@@QAE_NUQbKey@2@AAUQbArray@2@@Z ENDP ; GH3::QbStruct::GetArray
_TEXT	ENDS
; Function compile flags: /Odtp /RTCsu /ZI
; File c:\windows\fastgh3\plugins\code\gh3\qbstruct.cpp
;	COMDAT ?GetStruct@QbStruct@GH3@@QAE_NUQbKey@2@AAU12@@Z
_TEXT	SEGMENT
_this$ = -8						; size = 4
_qbKey$ = 8						; size = 4
_value$ = 12						; size = 4
?GetStruct@QbStruct@GH3@@QAE_NUQbKey@2@AAU12@@Z PROC	; GH3::QbStruct::GetStruct, COMDAT
; _this$ = ecx

; 209  : 	{

	push	ebp
	mov	ebp, esp
	sub	esp, 216				; 000000d8H
	push	ebx
	push	esi
	push	edi
	push	ecx
	lea	edi, DWORD PTR [ebp-216]
	mov	ecx, 54					; 00000036H
	mov	eax, -858993460				; ccccccccH
	rep stosd
	pop	ecx
	mov	DWORD PTR _this$[ebp], ecx

; 210  : 		return GetTypedValue(qbKey, QbValueType::TypeQbStruct, &value);

	mov	eax, DWORD PTR _value$[ebp]
	push	eax
	push	10					; 0000000aH
	push	ecx
	mov	ecx, esp
	lea	edx, DWORD PTR _qbKey$[ebp]
	push	edx
	call	??0QbKey@GH3@@QAE@ABU01@@Z		; GH3::QbKey::QbKey
	mov	ecx, DWORD PTR _this$[ebp]
	call	?GetTypedValue@QbStruct@GH3@@QAE_NUQbKey@2@W4QbValueType@2@PAX@Z ; GH3::QbStruct::GetTypedValue

; 211  : 	}

	pop	edi
	pop	esi
	pop	ebx
	add	esp, 216				; 000000d8H
	cmp	ebp, esp
	call	__RTC_CheckEsp
	mov	esp, ebp
	pop	ebp
	ret	8
?GetStruct@QbStruct@GH3@@QAE_NUQbKey@2@AAU12@@Z ENDP	; GH3::QbStruct::GetStruct
_TEXT	ENDS
; Function compile flags: /Odtp /RTCsu /ZI
; File c:\windows\fastgh3\plugins\code\gh3\qbstruct.cpp
;	COMDAT ?GetVector@QbStruct@GH3@@QAE_NUQbKey@2@AAUQbVector@2@@Z
_TEXT	SEGMENT
_this$ = -8						; size = 4
_qbKey$ = 8						; size = 4
_value$ = 12						; size = 4
?GetVector@QbStruct@GH3@@QAE_NUQbKey@2@AAUQbVector@2@@Z PROC ; GH3::QbStruct::GetVector, COMDAT
; _this$ = ecx

; 205  : 	{

	push	ebp
	mov	ebp, esp
	sub	esp, 216				; 000000d8H
	push	ebx
	push	esi
	push	edi
	push	ecx
	lea	edi, DWORD PTR [ebp-216]
	mov	ecx, 54					; 00000036H
	mov	eax, -858993460				; ccccccccH
	rep stosd
	pop	ecx
	mov	DWORD PTR _this$[ebp], ecx

; 206  : 		return GetTypedValue(qbKey, QbValueType::TypeVector, &value);

	mov	eax, DWORD PTR _value$[ebp]
	push	eax
	push	6
	push	ecx
	mov	ecx, esp
	lea	edx, DWORD PTR _qbKey$[ebp]
	push	edx
	call	??0QbKey@GH3@@QAE@ABU01@@Z		; GH3::QbKey::QbKey
	mov	ecx, DWORD PTR _this$[ebp]
	call	?GetTypedValue@QbStruct@GH3@@QAE_NUQbKey@2@W4QbValueType@2@PAX@Z ; GH3::QbStruct::GetTypedValue

; 207  : 	}

	pop	edi
	pop	esi
	pop	ebx
	add	esp, 216				; 000000d8H
	cmp	ebp, esp
	call	__RTC_CheckEsp
	mov	esp, ebp
	pop	ebp
	ret	8
?GetVector@QbStruct@GH3@@QAE_NUQbKey@2@AAUQbVector@2@@Z ENDP ; GH3::QbStruct::GetVector
_TEXT	ENDS
; Function compile flags: /Odtp /RTCsu /ZI
; File c:\windows\fastgh3\plugins\code\gh3\qbstruct.cpp
;	COMDAT ?GetPair@QbStruct@GH3@@QAE_NUQbKey@2@AAUQbPair@2@@Z
_TEXT	SEGMENT
_this$ = -8						; size = 4
_qbKey$ = 8						; size = 4
_value$ = 12						; size = 4
?GetPair@QbStruct@GH3@@QAE_NUQbKey@2@AAUQbPair@2@@Z PROC ; GH3::QbStruct::GetPair, COMDAT
; _this$ = ecx

; 201  : 	{

	push	ebp
	mov	ebp, esp
	sub	esp, 216				; 000000d8H
	push	ebx
	push	esi
	push	edi
	push	ecx
	lea	edi, DWORD PTR [ebp-216]
	mov	ecx, 54					; 00000036H
	mov	eax, -858993460				; ccccccccH
	rep stosd
	pop	ecx
	mov	DWORD PTR _this$[ebp], ecx

; 202  : 		return GetTypedValue(qbKey, QbValueType::TypePair, &value);

	mov	eax, DWORD PTR _value$[ebp]
	push	eax
	push	5
	push	ecx
	mov	ecx, esp
	lea	edx, DWORD PTR _qbKey$[ebp]
	push	edx
	call	??0QbKey@GH3@@QAE@ABU01@@Z		; GH3::QbKey::QbKey
	mov	ecx, DWORD PTR _this$[ebp]
	call	?GetTypedValue@QbStruct@GH3@@QAE_NUQbKey@2@W4QbValueType@2@PAX@Z ; GH3::QbStruct::GetTypedValue

; 203  : 	}

	pop	edi
	pop	esi
	pop	ebx
	add	esp, 216				; 000000d8H
	cmp	ebp, esp
	call	__RTC_CheckEsp
	mov	esp, ebp
	pop	ebp
	ret	8
?GetPair@QbStruct@GH3@@QAE_NUQbKey@2@AAUQbPair@2@@Z ENDP ; GH3::QbStruct::GetPair
_TEXT	ENDS
; Function compile flags: /Odtp /RTCsu /ZI
; File c:\windows\fastgh3\plugins\code\gh3\qbstruct.cpp
;	COMDAT ?GetWString@QbStruct@GH3@@QAE_NUQbKey@2@AAPA_W@Z
_TEXT	SEGMENT
_this$ = -8						; size = 4
_qbKey$ = 8						; size = 4
_value$ = 12						; size = 4
?GetWString@QbStruct@GH3@@QAE_NUQbKey@2@AAPA_W@Z PROC	; GH3::QbStruct::GetWString, COMDAT
; _this$ = ecx

; 196  : 	{

	push	ebp
	mov	ebp, esp
	sub	esp, 216				; 000000d8H
	push	ebx
	push	esi
	push	edi
	push	ecx
	lea	edi, DWORD PTR [ebp-216]
	mov	ecx, 54					; 00000036H
	mov	eax, -858993460				; ccccccccH
	rep stosd
	pop	ecx
	mov	DWORD PTR _this$[ebp], ecx

; 197  : 		return GetTypedValue(qbKey, QbValueType::TypeWString, &value);

	mov	eax, DWORD PTR _value$[ebp]
	push	eax
	push	4
	push	ecx
	mov	ecx, esp
	lea	edx, DWORD PTR _qbKey$[ebp]
	push	edx
	call	??0QbKey@GH3@@QAE@ABU01@@Z		; GH3::QbKey::QbKey
	mov	ecx, DWORD PTR _this$[ebp]
	call	?GetTypedValue@QbStruct@GH3@@QAE_NUQbKey@2@W4QbValueType@2@PAX@Z ; GH3::QbStruct::GetTypedValue

; 198  : 	}

	pop	edi
	pop	esi
	pop	ebx
	add	esp, 216				; 000000d8H
	cmp	ebp, esp
	call	__RTC_CheckEsp
	mov	esp, ebp
	pop	ebp
	ret	8
?GetWString@QbStruct@GH3@@QAE_NUQbKey@2@AAPA_W@Z ENDP	; GH3::QbStruct::GetWString
_TEXT	ENDS
; Function compile flags: /Odtp /RTCsu /ZI
; File c:\windows\fastgh3\plugins\code\gh3\qbstruct.cpp
;	COMDAT ?GetString@QbStruct@GH3@@QAE_NUQbKey@2@AAPAD@Z
_TEXT	SEGMENT
_this$ = -8						; size = 4
_qbKey$ = 8						; size = 4
_value$ = 12						; size = 4
?GetString@QbStruct@GH3@@QAE_NUQbKey@2@AAPAD@Z PROC	; GH3::QbStruct::GetString, COMDAT
; _this$ = ecx

; 192  : 	{

	push	ebp
	mov	ebp, esp
	sub	esp, 216				; 000000d8H
	push	ebx
	push	esi
	push	edi
	push	ecx
	lea	edi, DWORD PTR [ebp-216]
	mov	ecx, 54					; 00000036H
	mov	eax, -858993460				; ccccccccH
	rep stosd
	pop	ecx
	mov	DWORD PTR _this$[ebp], ecx

; 193  : 		return GetTypedValue(qbKey, QbValueType::TypeCString, &value);

	mov	eax, DWORD PTR _value$[ebp]
	push	eax
	push	3
	push	ecx
	mov	ecx, esp
	lea	edx, DWORD PTR _qbKey$[ebp]
	push	edx
	call	??0QbKey@GH3@@QAE@ABU01@@Z		; GH3::QbKey::QbKey
	mov	ecx, DWORD PTR _this$[ebp]
	call	?GetTypedValue@QbStruct@GH3@@QAE_NUQbKey@2@W4QbValueType@2@PAX@Z ; GH3::QbStruct::GetTypedValue

; 194  : 	}

	pop	edi
	pop	esi
	pop	ebx
	add	esp, 216				; 000000d8H
	cmp	ebp, esp
	call	__RTC_CheckEsp
	mov	esp, ebp
	pop	ebp
	ret	8
?GetString@QbStruct@GH3@@QAE_NUQbKey@2@AAPAD@Z ENDP	; GH3::QbStruct::GetString
_TEXT	ENDS
; Function compile flags: /Odtp /RTCsu /ZI
; File c:\windows\fastgh3\plugins\code\gh3\qbstruct.cpp
;	COMDAT ?GetDouble@QbStruct@GH3@@QAE_NUQbKey@2@AAN@Z
_TEXT	SEGMENT
_result$ = -29						; size = 1
_fValue$ = -20						; size = 4
_this$ = -8						; size = 4
_qbKey$ = 8						; size = 4
_value$ = 12						; size = 4
?GetDouble@QbStruct@GH3@@QAE_NUQbKey@2@AAN@Z PROC	; GH3::QbStruct::GetDouble, COMDAT
; _this$ = ecx

; 184  : 	{

	push	ebp
	mov	ebp, esp
	sub	esp, 240				; 000000f0H
	push	ebx
	push	esi
	push	edi
	push	ecx
	lea	edi, DWORD PTR [ebp-240]
	mov	ecx, 60					; 0000003cH
	mov	eax, -858993460				; ccccccccH
	rep stosd
	pop	ecx
	mov	DWORD PTR _this$[ebp], ecx

; 185  : 		float fValue;
; 186  : 		bool result = GetFloat(qbKey, fValue);

	lea	eax, DWORD PTR _fValue$[ebp]
	push	eax
	push	ecx
	mov	ecx, esp
	lea	edx, DWORD PTR _qbKey$[ebp]
	push	edx
	call	??0QbKey@GH3@@QAE@ABU01@@Z		; GH3::QbKey::QbKey
	mov	ecx, DWORD PTR _this$[ebp]
	call	?GetFloat@QbStruct@GH3@@QAE_NUQbKey@2@AAM@Z ; GH3::QbStruct::GetFloat
	mov	BYTE PTR _result$[ebp], al

; 187  : 		value = fValue;

	cvtss2sd xmm0, DWORD PTR _fValue$[ebp]
	mov	eax, DWORD PTR _value$[ebp]
	movsd	QWORD PTR [eax], xmm0

; 188  : 		return result;

	mov	al, BYTE PTR _result$[ebp]

; 189  : 	}

	push	edx
	mov	ecx, ebp
	push	eax
	lea	edx, DWORD PTR $LN5@GetDouble
	call	@_RTC_CheckStackVars@8
	pop	eax
	pop	edx
	pop	edi
	pop	esi
	pop	ebx
	add	esp, 240				; 000000f0H
	cmp	ebp, esp
	call	__RTC_CheckEsp
	mov	esp, ebp
	pop	ebp
	ret	8
$LN5@GetDouble:
	DD	1
	DD	$LN4@GetDouble
$LN4@GetDouble:
	DD	-20					; ffffffecH
	DD	4
	DD	$LN3@GetDouble
$LN3@GetDouble:
	DB	102					; 00000066H
	DB	86					; 00000056H
	DB	97					; 00000061H
	DB	108					; 0000006cH
	DB	117					; 00000075H
	DB	101					; 00000065H
	DB	0
?GetDouble@QbStruct@GH3@@QAE_NUQbKey@2@AAN@Z ENDP	; GH3::QbStruct::GetDouble
_TEXT	ENDS
; Function compile flags: /Odtp /RTCsu /ZI
; File c:\windows\fastgh3\plugins\code\gh3\qbstruct.cpp
;	COMDAT ?GetFloat@QbStruct@GH3@@QAE_NUQbKey@2@AAM@Z
_TEXT	SEGMENT
_this$ = -8						; size = 4
_qbKey$ = 8						; size = 4
_value$ = 12						; size = 4
?GetFloat@QbStruct@GH3@@QAE_NUQbKey@2@AAM@Z PROC	; GH3::QbStruct::GetFloat, COMDAT
; _this$ = ecx

; 180  : 	{

	push	ebp
	mov	ebp, esp
	sub	esp, 216				; 000000d8H
	push	ebx
	push	esi
	push	edi
	push	ecx
	lea	edi, DWORD PTR [ebp-216]
	mov	ecx, 54					; 00000036H
	mov	eax, -858993460				; ccccccccH
	rep stosd
	pop	ecx
	mov	DWORD PTR _this$[ebp], ecx

; 181  : 		return GetTypedValue(qbKey, QbValueType::TypeFloat, &value);

	mov	eax, DWORD PTR _value$[ebp]
	push	eax
	push	2
	push	ecx
	mov	ecx, esp
	lea	edx, DWORD PTR _qbKey$[ebp]
	push	edx
	call	??0QbKey@GH3@@QAE@ABU01@@Z		; GH3::QbKey::QbKey
	mov	ecx, DWORD PTR _this$[ebp]
	call	?GetTypedValue@QbStruct@GH3@@QAE_NUQbKey@2@W4QbValueType@2@PAX@Z ; GH3::QbStruct::GetTypedValue

; 182  : 	}

	pop	edi
	pop	esi
	pop	ebx
	add	esp, 216				; 000000d8H
	cmp	ebp, esp
	call	__RTC_CheckEsp
	mov	esp, ebp
	pop	ebp
	ret	8
?GetFloat@QbStruct@GH3@@QAE_NUQbKey@2@AAM@Z ENDP	; GH3::QbStruct::GetFloat
_TEXT	ENDS
; Function compile flags: /Odtp /RTCsu /ZI
; File c:\windows\fastgh3\plugins\code\gh3\qbstruct.cpp
;	COMDAT ?GetUInt@QbStruct@GH3@@QAE_NUQbKey@2@AAI@Z
_TEXT	SEGMENT
_this$ = -8						; size = 4
_qbKey$ = 8						; size = 4
_value$ = 12						; size = 4
?GetUInt@QbStruct@GH3@@QAE_NUQbKey@2@AAI@Z PROC		; GH3::QbStruct::GetUInt, COMDAT
; _this$ = ecx

; 175  : 	{

	push	ebp
	mov	ebp, esp
	sub	esp, 216				; 000000d8H
	push	ebx
	push	esi
	push	edi
	push	ecx
	lea	edi, DWORD PTR [ebp-216]
	mov	ecx, 54					; 00000036H
	mov	eax, -858993460				; ccccccccH
	rep stosd
	pop	ecx
	mov	DWORD PTR _this$[ebp], ecx

; 176  : 		return GetTypedValue(qbKey, QbValueType::TypeInt, &value);

	mov	eax, DWORD PTR _value$[ebp]
	push	eax
	push	1
	push	ecx
	mov	ecx, esp
	lea	edx, DWORD PTR _qbKey$[ebp]
	push	edx
	call	??0QbKey@GH3@@QAE@ABU01@@Z		; GH3::QbKey::QbKey
	mov	ecx, DWORD PTR _this$[ebp]
	call	?GetTypedValue@QbStruct@GH3@@QAE_NUQbKey@2@W4QbValueType@2@PAX@Z ; GH3::QbStruct::GetTypedValue

; 177  : 	}

	pop	edi
	pop	esi
	pop	ebx
	add	esp, 216				; 000000d8H
	cmp	ebp, esp
	call	__RTC_CheckEsp
	mov	esp, ebp
	pop	ebp
	ret	8
?GetUInt@QbStruct@GH3@@QAE_NUQbKey@2@AAI@Z ENDP		; GH3::QbStruct::GetUInt
_TEXT	ENDS
; Function compile flags: /Odtp /RTCsu /ZI
; File c:\windows\fastgh3\plugins\code\gh3\qbstruct.cpp
;	COMDAT ?GetInt@QbStruct@GH3@@QAE_NUQbKey@2@AAH@Z
_TEXT	SEGMENT
_this$ = -8						; size = 4
_qbKey$ = 8						; size = 4
_value$ = 12						; size = 4
?GetInt@QbStruct@GH3@@QAE_NUQbKey@2@AAH@Z PROC		; GH3::QbStruct::GetInt, COMDAT
; _this$ = ecx

; 171  : 	{

	push	ebp
	mov	ebp, esp
	sub	esp, 216				; 000000d8H
	push	ebx
	push	esi
	push	edi
	push	ecx
	lea	edi, DWORD PTR [ebp-216]
	mov	ecx, 54					; 00000036H
	mov	eax, -858993460				; ccccccccH
	rep stosd
	pop	ecx
	mov	DWORD PTR _this$[ebp], ecx

; 172  : 		return GetTypedValue(qbKey, QbValueType::TypeInt, &value);

	mov	eax, DWORD PTR _value$[ebp]
	push	eax
	push	1
	push	ecx
	mov	ecx, esp
	lea	edx, DWORD PTR _qbKey$[ebp]
	push	edx
	call	??0QbKey@GH3@@QAE@ABU01@@Z		; GH3::QbKey::QbKey
	mov	ecx, DWORD PTR _this$[ebp]
	call	?GetTypedValue@QbStruct@GH3@@QAE_NUQbKey@2@W4QbValueType@2@PAX@Z ; GH3::QbStruct::GetTypedValue

; 173  : 	}

	pop	edi
	pop	esi
	pop	ebx
	add	esp, 216				; 000000d8H
	cmp	ebp, esp
	call	__RTC_CheckEsp
	mov	esp, ebp
	pop	ebp
	ret	8
?GetInt@QbStruct@GH3@@QAE_NUQbKey@2@AAH@Z ENDP		; GH3::QbStruct::GetInt
_TEXT	ENDS
; Function compile flags: /Odtp /RTCsu /ZI
; File c:\windows\fastgh3\plugins\code\gh3\qbstruct.cpp
;	COMDAT ?GetTypedValue@QbStruct@GH3@@QAE_NUQbKey@2@W4QbValueType@2@PAX@Z
_TEXT	SEGMENT
$T1 = -428						; size = 4
$T2 = -404						; size = 4
_map$ = -176						; size = 4
_st$3 = -164						; size = 4
_tree$4 = -152						; size = 4
_tmp$ = -140						; size = 4
_fValue$ = -128						; size = 4
_iValue$ = -116						; size = 4
_success$ = -101					; size = 1
_node2$ = -92						; size = 4
_itemType$ = -77					; size = 1
_item2$ = -68						; size = 4
_item$ = -56						; size = 4
_type$ = -41						; size = 1
_value2$ = -32						; size = 4
_node$ = -20						; size = 4
_this$ = -8						; size = 4
_qbKey$ = 8						; size = 4
_valueType$ = 12					; size = 1
_value$ = 16						; size = 4
?GetTypedValue@QbStruct@GH3@@QAE_NUQbKey@2@W4QbValueType@2@PAX@Z PROC ; GH3::QbStruct::GetTypedValue, COMDAT
; _this$ = ecx

; 26   : 	{

	push	ebp
	mov	ebp, esp
	sub	esp, 456				; 000001c8H
	push	ebx
	push	esi
	push	edi
	push	ecx
	lea	edi, DWORD PTR [ebp-456]
	mov	ecx, 114				; 00000072H
	mov	eax, -858993460				; ccccccccH
	rep stosd
	pop	ecx
	mov	DWORD PTR _this$[ebp], ecx

; 27   : 		QbStructItem *node; // edi@1
; 28   : 		void *value2; // ebp@2
; 29   : 		QbValueType type; // al@3 MAPDST
; 30   : 		HashMapNode *item; // eax@7
; 31   : 		HashMapNode *item2; // esi@10
; 32   : 		QbValueType itemType; // cl@18
; 33   : 		QbStructItem *node2; // eax@43
; 34   : 		bool success; // [sp+Bh] [bp-1h]@1
; 35   : 					  // Is this the GetDWord variant for ints?
; 36   : 		node = this->first;

	mov	eax, DWORD PTR _this$[ebp]
	mov	ecx, DWORD PTR [eax+4]
	mov	DWORD PTR _node$[ebp], ecx

; 37   : 		success = false;                                  // 

	mov	BYTE PTR _success$[ebp], 0

; 38   : 													  // 
; 39   : 		if (!node)

	cmp	DWORD PTR _node$[ebp], 0
	jne	SHORT $LN11@GetTypedVa

; 40   : 			return success;

	mov	al, BYTE PTR _success$[ebp]
	jmp	$LN1@GetTypedVa
$LN11@GetTypedVa:

; 41   : 
; 42   : 		value2 = value;

	mov	eax, DWORD PTR _value$[ebp]
	mov	DWORD PTR _value2$[ebp], eax

; 43   : 		uint32_t *iValue = static_cast<uint32_t *>(value);

	mov	eax, DWORD PTR _value$[ebp]
	mov	DWORD PTR _iValue$[ebp], eax

; 44   : 		float *fValue = static_cast<float *>(value);

	mov	eax, DWORD PTR _value$[ebp]
	mov	DWORD PTR _fValue$[ebp], eax
$LN2@GetTypedVa:

; 45   : 
; 46   : 		uint32_t tmp;
; 47   : 
; 48   : 													  
; 49   : 		while (1)

	mov	eax, 1
	test	eax, eax
	je	$LN3@GetTypedVa

; 50   : 		{
; 51   : 			type = node->Type();

	mov	ecx, DWORD PTR _node$[ebp]
	call	?Type@QbStructItem@GH3@@QAE?AW4QbValueType@2@XZ ; GH3::QbStructItem::Type
	mov	BYTE PTR _type$[ebp], al

; 52   : 														// 
; 53   : 			if (type == TypeQbMap)

	movsx	eax, BYTE PTR _type$[ebp]
	cmp	eax, 27					; 0000001bH
	jne	SHORT $LN12@GetTypedVa

; 54   : 				break;                                    // 

	jmp	$LN3@GetTypedVa
$LN12@GetTypedVa:

; 55   : 														  // 
; 56   : 			if (type == TypeBinaryTree2 || type == TypeBinaryTree1)

	movsx	eax, BYTE PTR _type$[ebp]
	cmp	eax, 23					; 00000017H
	je	SHORT $LN15@GetTypedVa
	movsx	eax, BYTE PTR _type$[ebp]
	cmp	eax, 22					; 00000016H
	jne	SHORT $LN13@GetTypedVa
$LN15@GetTypedVa:

; 57   : 			{
; 58   : 				BinaryTree *tree = reinterpret_cast<BinaryTree *>(node->value);

	mov	eax, DWORD PTR _node$[ebp]
	mov	ecx, DWORD PTR [eax+8]
	mov	DWORD PTR _tree$4[ebp], ecx

; 59   : 				if (tree->GetTypedValue(qbKey, valueType, value))

	mov	eax, DWORD PTR _value$[ebp]
	push	eax
	movzx	ecx, BYTE PTR _valueType$[ebp]
	push	ecx
	push	ecx
	mov	ecx, esp
	lea	edx, DWORD PTR _qbKey$[ebp]
	push	edx
	call	??0QbKey@GH3@@QAE@ABU01@@Z		; GH3::QbKey::QbKey
	mov	ecx, DWORD PTR _tree$4[ebp]
	call	?GetTypedValue@BinaryTree@GH3@@QAE_NUQbKey@2@W4QbValueType@2@PAX@Z ; GH3::BinaryTree::GetTypedValue
	movzx	eax, al
	test	eax, eax
	je	SHORT $LN16@GetTypedVa

; 60   : 					goto CONTINUE_LOOP;

	jmp	$LN17@GetTypedVa
	jmp	$CONTINUE_LOOP$54
$LN16@GetTypedVa:

; 61   : 			}                                           // 

	jmp	$LN43@GetTypedVa
$LN13@GetTypedVa:

; 62   : 														// 
; 63   : 			else if (type == TypeStringPointer)

	movsx	eax, BYTE PTR _type$[ebp]
	cmp	eax, 26					; 0000001aH
	jne	$LN18@GetTypedVa

; 64   : 			{
; 65   : 				for (item = GlobalMap::GetEntry(node->value); item; item = item->nextItem)

	push	ecx
	mov	ecx, esp
	mov	eax, DWORD PTR _node$[ebp]
	mov	edx, DWORD PTR [eax+8]
	push	edx
	call	??0QbKey@GH3@@QAE@I@Z			; GH3::QbKey::QbKey
	call	?GetEntry@GlobalMap@GH3@@SAPAUHashMapNode@2@UQbKey@2@@Z ; GH3::GlobalMap::GetEntry
	add	esp, 4
	mov	DWORD PTR _item$[ebp], eax
	jmp	SHORT $LN6@GetTypedVa
$LN4@GetTypedVa:
	mov	eax, DWORD PTR _item$[ebp]
	mov	ecx, DWORD PTR [eax+16]
	mov	DWORD PTR _item$[ebp], ecx
$LN6@GetTypedVa:
	cmp	DWORD PTR _item$[ebp], 0
	je	SHORT $LN5@GetTypedVa

; 66   : 				{
; 67   : 					if (item->key == static_cast<QbKey>(node->value))

	mov	ecx, DWORD PTR _item$[ebp]
	add	ecx, 4
	call	??BQbKey@GH3@@QBEIXZ			; GH3::QbKey::operator unsigned int
	mov	esi, eax
	mov	eax, DWORD PTR _node$[ebp]
	mov	ecx, DWORD PTR [eax+8]
	push	ecx
	lea	ecx, DWORD PTR $T2[ebp]
	call	??0QbKey@GH3@@QAE@I@Z			; GH3::QbKey::QbKey
	mov	ecx, eax
	call	??BQbKey@GH3@@QBEIXZ			; GH3::QbKey::operator unsigned int
	cmp	esi, eax
	jne	SHORT $LN20@GetTypedVa

; 68   : 						break;

	jmp	SHORT $LN5@GetTypedVa
$LN20@GetTypedVa:

; 69   : 				}

	jmp	SHORT $LN4@GetTypedVa
$LN5@GetTypedVa:

; 70   : 				item2 = item;

	mov	eax, DWORD PTR _item$[ebp]
	mov	DWORD PTR _item2$[ebp], eax

; 71   : 				if (item && ((type = item->itemType, type == TypeQbKey) || type == TypeStringPointer))

	cmp	DWORD PTR _item$[ebp], 0
	je	$LN21@GetTypedVa
	mov	eax, DWORD PTR _item$[ebp]
	mov	cl, BYTE PTR [eax+2]
	mov	BYTE PTR _type$[ebp], cl
	movsx	edx, BYTE PTR _type$[ebp]
	cmp	edx, 13					; 0000000dH
	je	SHORT $LN23@GetTypedVa
	movsx	eax, BYTE PTR _type$[ebp]
	cmp	eax, 26					; 0000001aH
	jne	$LN21@GetTypedVa
$LN23@GetTypedVa:

; 72   : 				{
; 73   : 					while (1)

	mov	eax, 1
	test	eax, eax
	je	$LN8@GetTypedVa

; 74   : 					{
; 75   : 						item = GlobalMap::GetEntry(item2->value); // g_HashMap[item2->value.key & 0x7FFF];

	push	ecx
	mov	ecx, esp
	mov	eax, DWORD PTR _item2$[ebp]
	mov	edx, DWORD PTR [eax+12]
	push	edx
	call	??0QbKey@GH3@@QAE@I@Z			; GH3::QbKey::QbKey
	call	?GetEntry@GlobalMap@GH3@@SAPAUHashMapNode@2@UQbKey@2@@Z ; GH3::GlobalMap::GetEntry
	add	esp, 4
	mov	DWORD PTR _item$[ebp], eax

; 76   : 						if (!item)

	cmp	DWORD PTR _item$[ebp], 0
	jne	SHORT $LN24@GetTypedVa

; 77   : 							break;

	jmp	SHORT $LN8@GetTypedVa
$LN24@GetTypedVa:

; 78   : 						while (item->key != static_cast<QbKey>(item2->value))

	mov	ecx, DWORD PTR _item$[ebp]
	add	ecx, 4
	call	??BQbKey@GH3@@QBEIXZ			; GH3::QbKey::operator unsigned int
	mov	esi, eax
	mov	eax, DWORD PTR _item2$[ebp]
	mov	ecx, DWORD PTR [eax+12]
	push	ecx
	lea	ecx, DWORD PTR $T1[ebp]
	call	??0QbKey@GH3@@QAE@I@Z			; GH3::QbKey::QbKey
	mov	ecx, eax
	call	??BQbKey@GH3@@QBEIXZ			; GH3::QbKey::operator unsigned int
	cmp	esi, eax
	je	SHORT $LN10@GetTypedVa

; 79   : 						{
; 80   : 							item = item->nextItem;

	mov	eax, DWORD PTR _item$[ebp]
	mov	ecx, DWORD PTR [eax+16]
	mov	DWORD PTR _item$[ebp], ecx

; 81   : 							if (!item)

	cmp	DWORD PTR _item$[ebp], 0
	jne	SHORT $LN25@GetTypedVa

; 82   : 								goto LABEL_22;

	jmp	SHORT $LN26@GetTypedVa
	jmp	SHORT $LABEL_22$55
$LN25@GetTypedVa:

; 83   : 						}

	jmp	SHORT $LN24@GetTypedVa
$LN10@GetTypedVa:

; 84   : 						if (!item)

	cmp	DWORD PTR _item$[ebp], 0
	jne	SHORT $LN27@GetTypedVa

; 85   : 							break;

	jmp	SHORT $LN8@GetTypedVa
$LN27@GetTypedVa:

; 86   : 						itemType = item->itemType;

	mov	eax, DWORD PTR _item$[ebp]
	mov	cl, BYTE PTR [eax+2]
	mov	BYTE PTR _itemType$[ebp], cl

; 87   : 
; 88   : 						if (itemType != TypeQbKey && itemType != TypeStringPointer)

	movsx	eax, BYTE PTR _itemType$[ebp]
	cmp	eax, 13					; 0000000dH
	je	SHORT $LN28@GetTypedVa
	movsx	eax, BYTE PTR _itemType$[ebp]
	cmp	eax, 26					; 0000001aH
	je	SHORT $LN28@GetTypedVa

; 89   : 							goto LABEL_21;

	jmp	SHORT $LN29@GetTypedVa
	jmp	SHORT $LABEL_21$56
$LN28@GetTypedVa:

; 90   : 						item2 = item;

	mov	eax, DWORD PTR _item$[ebp]
	mov	DWORD PTR _item2$[ebp], eax

; 91   : 					}

	jmp	$LN23@GetTypedVa
$LN8@GetTypedVa:

; 92   : 				}
; 93   : 				else

	jmp	SHORT $LN22@GetTypedVa
$LN21@GetTypedVa:
$LN29@GetTypedVa:
$LABEL_21$56:

; 94   : 				{
; 95   : 				LABEL_21:
; 96   : 					item2 = item;

	mov	eax, DWORD PTR _item$[ebp]
	mov	DWORD PTR _item2$[ebp], eax
$LN22@GetTypedVa:
$LN26@GetTypedVa:
$LABEL_22$55:

; 97   : 				}
; 98   : 			LABEL_22:
; 99   : 				if (!item2)

	cmp	DWORD PTR _item2$[ebp], 0
	jne	SHORT $LN30@GetTypedVa

; 100  : 					goto CONTINUE_LOOP_B;

	jmp	$LN31@GetTypedVa
	jmp	$CONTINUE_LOOP_B$57
$LN30@GetTypedVa:

; 101  : 
; 102  : 				QbStruct *st = reinterpret_cast<QbStruct *>(item2->value);

	mov	eax, DWORD PTR _item2$[ebp]
	mov	ecx, DWORD PTR [eax+12]
	mov	DWORD PTR _st$3[ebp], ecx

; 103  : 				if (node->key == 0
; 104  : 					&& item2->itemType == TypeQbStruct
; 105  : 					&& st->GetTypedValue(qbKey, valueType, &tmp))

	mov	eax, DWORD PTR _node$[ebp]
	cmp	DWORD PTR [eax+4], 0
	jne	SHORT $LN33@GetTypedVa
	mov	eax, DWORD PTR _item2$[ebp]
	movsx	ecx, BYTE PTR [eax+2]
	cmp	ecx, 10					; 0000000aH
	jne	SHORT $LN33@GetTypedVa
	lea	eax, DWORD PTR _tmp$[ebp]
	push	eax
	movzx	ecx, BYTE PTR _valueType$[ebp]
	push	ecx
	push	ecx
	mov	ecx, esp
	lea	edx, DWORD PTR _qbKey$[ebp]
	push	edx
	call	??0QbKey@GH3@@QAE@ABU01@@Z		; GH3::QbKey::QbKey
	mov	ecx, DWORD PTR _st$3[ebp]
	call	?GetTypedValue@QbStruct@GH3@@QAE_NUQbKey@2@W4QbValueType@2@PAX@Z ; GH3::QbStruct::GetTypedValue
	movzx	eax, al
	test	eax, eax
	je	SHORT $LN33@GetTypedVa

; 106  : 				{
; 107  : 					*iValue = tmp;

	mov	eax, DWORD PTR _iValue$[ebp]
	mov	ecx, DWORD PTR _tmp$[ebp]
	mov	DWORD PTR [eax], ecx

; 108  : 					success = true;

	mov	BYTE PTR _success$[ebp], 1

; 109  : 					if (this->unk3)

	mov	eax, DWORD PTR _this$[ebp]
	movzx	ecx, BYTE PTR [eax+3]
	test	ecx, ecx
	je	SHORT $LN33@GetTypedVa

; 110  : 						return success;

	mov	al, BYTE PTR _success$[ebp]
	jmp	$LN1@GetTypedVa
$LN33@GetTypedVa:

; 111  : 				}
; 112  : 				if (node->key != qbKey)

	lea	ecx, DWORD PTR _qbKey$[ebp]
	call	??BQbKey@GH3@@QBEIXZ			; GH3::QbKey::operator unsigned int
	mov	ecx, DWORD PTR _node$[ebp]
	cmp	DWORD PTR [ecx+4], eax
	je	SHORT $LN34@GetTypedVa

; 113  : 					goto CONTINUE_LOOP_B;

	jmp	$LN35@GetTypedVa
	jmp	$CONTINUE_LOOP_B$57
$LN34@GetTypedVa:

; 114  : 				if (item2->itemType == valueType)

	mov	eax, DWORD PTR _item2$[ebp]
	movsx	ecx, BYTE PTR [eax+2]
	movsx	edx, BYTE PTR _valueType$[ebp]
	cmp	ecx, edx
	jne	SHORT $LN36@GetTypedVa

; 115  : 				{
; 116  : 					*iValue = item2->value;

	mov	eax, DWORD PTR _iValue$[ebp]
	mov	ecx, DWORD PTR _item2$[ebp]
	mov	edx, DWORD PTR [ecx+12]
	mov	DWORD PTR [eax], edx

; 117  : 					goto CONTINUE_LOOP;

	jmp	SHORT $LN37@GetTypedVa
	jmp	SHORT $CONTINUE_LOOP$54
$LN36@GetTypedVa:

; 118  : 				}
; 119  : 				if (item2->itemType == TypeInt && valueType == TypeFloat)

	mov	eax, DWORD PTR _item2$[ebp]
	movsx	ecx, BYTE PTR [eax+2]
	cmp	ecx, 1
	jne	SHORT $LN38@GetTypedVa
	movsx	eax, BYTE PTR _valueType$[ebp]
	cmp	eax, 2
	jne	SHORT $LN38@GetTypedVa

; 120  : 				{
; 121  : 					*fValue = (float)(signed int)item2->value;

	mov	eax, DWORD PTR _item2$[ebp]
	cvtsi2ss xmm0, DWORD PTR [eax+12]
	mov	ecx, DWORD PTR _fValue$[ebp]
	movss	DWORD PTR [ecx], xmm0

; 122  : 					goto CONTINUE_LOOP;

	jmp	SHORT $LN39@GetTypedVa
	jmp	SHORT $CONTINUE_LOOP$54
$LN38@GetTypedVa:

; 123  : 				}
; 124  : 			}

	jmp	SHORT $LN43@GetTypedVa
$LN18@GetTypedVa:

; 125  : 			else if (node->key == qbKey)

	lea	ecx, DWORD PTR _qbKey$[ebp]
	call	??BQbKey@GH3@@QBEIXZ			; GH3::QbKey::operator unsigned int
	mov	ecx, DWORD PTR _node$[ebp]
	cmp	DWORD PTR [ecx+4], eax
	jne	SHORT $LN43@GetTypedVa

; 126  : 			{
; 127  : 				if (node->Type() == valueType)

	mov	ecx, DWORD PTR _node$[ebp]
	call	?Type@QbStructItem@GH3@@QAE?AW4QbValueType@2@XZ ; GH3::QbStructItem::Type
	movsx	eax, al
	movsx	ecx, BYTE PTR _valueType$[ebp]
	cmp	eax, ecx
	jne	SHORT $LN41@GetTypedVa

; 128  : 				{
; 129  : 					*iValue = node->value;

	mov	eax, DWORD PTR _iValue$[ebp]
	mov	ecx, DWORD PTR _node$[ebp]
	mov	edx, DWORD PTR [ecx+8]
	mov	DWORD PTR [eax], edx

; 130  : 					goto CONTINUE_LOOP;

	jmp	SHORT $LN42@GetTypedVa
	jmp	SHORT $CONTINUE_LOOP$54
$LN41@GetTypedVa:

; 131  : 				}
; 132  : 				if (type == TypeInt && valueType == TypeFloat)

	movsx	eax, BYTE PTR _type$[ebp]
	cmp	eax, 1
	jne	SHORT $LN43@GetTypedVa
	movsx	eax, BYTE PTR _valueType$[ebp]
	cmp	eax, 2
	jne	SHORT $LN43@GetTypedVa

; 133  : 				{
; 134  : 					*fValue = (float)(signed int)node->value;

	mov	eax, DWORD PTR _node$[ebp]
	cvtsi2ss xmm0, DWORD PTR [eax+8]
	mov	ecx, DWORD PTR _fValue$[ebp]
	movss	DWORD PTR [ecx], xmm0
$LN17@GetTypedVa:
$LN37@GetTypedVa:
$LN39@GetTypedVa:
$LN42@GetTypedVa:
$CONTINUE_LOOP$54:

; 135  : 				CONTINUE_LOOP:
; 136  : 					success = true;

	mov	BYTE PTR _success$[ebp], 1

; 137  : 					if (this->unk3)

	mov	eax, DWORD PTR _this$[ebp]
	movzx	ecx, BYTE PTR [eax+3]
	test	ecx, ecx
	je	SHORT $LN44@GetTypedVa

; 138  : 						return success;

	mov	al, BYTE PTR _success$[ebp]
	jmp	$LN1@GetTypedVa
$LN44@GetTypedVa:
$LN43@GetTypedVa:
$LN31@GetTypedVa:
$LN35@GetTypedVa:
$CONTINUE_LOOP_B$57:

; 139  : 					goto CONTINUE_LOOP_B;
; 140  : 				}
; 141  : 			}
; 142  : 		CONTINUE_LOOP_B:
; 143  : 			node = node->next;

	mov	eax, DWORD PTR _node$[ebp]
	mov	ecx, DWORD PTR [eax+12]
	mov	DWORD PTR _node$[ebp], ecx

; 144  : 			if (!node)

	cmp	DWORD PTR _node$[ebp], 0
	jne	SHORT $LN46@GetTypedVa

; 145  : 				return success;

	mov	al, BYTE PTR _success$[ebp]
	jmp	$LN1@GetTypedVa
$LN46@GetTypedVa:

; 146  : 		}                                             // 

	jmp	$LN2@GetTypedVa
$LN3@GetTypedVa:

; 147  : 													  // 
; 148  : 													  // 
; 149  : 													  // 
; 150  : 													  // 
; 151  : 		QbMap *map = reinterpret_cast<QbMap *>(node->value);

	mov	eax, DWORD PTR _node$[ebp]
	mov	ecx, DWORD PTR [eax+8]
	mov	DWORD PTR _map$[ebp], ecx

; 152  : 		node2 = reinterpret_cast<QbStructItem *>(map->Get(qbKey));

	push	ecx
	mov	ecx, esp
	lea	eax, DWORD PTR _qbKey$[ebp]
	push	eax
	call	??0QbKey@GH3@@QAE@ABU01@@Z		; GH3::QbKey::QbKey
	mov	ecx, DWORD PTR _map$[ebp]
	call	?Get@QbMap@GH3@@QBEIUQbKey@2@@Z		; GH3::QbMap::Get
	mov	DWORD PTR _node2$[ebp], eax

; 153  : 		if (node2)

	cmp	DWORD PTR _node2$[ebp], 0
	je	SHORT $LN49@GetTypedVa

; 154  : 		{
; 155  : 			if (node2->Type() == valueType)

	mov	ecx, DWORD PTR _node2$[ebp]
	call	?Type@QbStructItem@GH3@@QAE?AW4QbValueType@2@XZ ; GH3::QbStructItem::Type
	movsx	eax, al
	movsx	ecx, BYTE PTR _valueType$[ebp]
	cmp	eax, ecx
	jne	SHORT $LN48@GetTypedVa

; 156  : 			{
; 157  : 				*iValue = node2->value;

	mov	eax, DWORD PTR _iValue$[ebp]
	mov	ecx, DWORD PTR _node2$[ebp]
	mov	edx, DWORD PTR [ecx+8]
	mov	DWORD PTR [eax], edx

; 158  : 				return true;

	mov	al, 1
	jmp	SHORT $LN1@GetTypedVa
$LN48@GetTypedVa:

; 159  : 			}
; 160  : 			if (valueType == QbValueType::TypeFloat && node2->Type() == QbValueType::TypeInt)// If valueType is a float but the node is an Int

	movsx	eax, BYTE PTR _valueType$[ebp]
	cmp	eax, 2
	jne	SHORT $LN49@GetTypedVa
	mov	ecx, DWORD PTR _node2$[ebp]
	call	?Type@QbStructItem@GH3@@QAE?AW4QbValueType@2@XZ ; GH3::QbStructItem::Type
	movsx	eax, al
	cmp	eax, 1
	jne	SHORT $LN49@GetTypedVa

; 161  : 			{
; 162  : 				*fValue = (float)(signed int)node2->value;// Converting Int to Float

	mov	eax, DWORD PTR _node2$[ebp]
	cvtsi2ss xmm0, DWORD PTR [eax+8]
	mov	ecx, DWORD PTR _fValue$[ebp]
	movss	DWORD PTR [ecx], xmm0

; 163  : 				return true;

	mov	al, 1
	jmp	SHORT $LN1@GetTypedVa
$LN49@GetTypedVa:

; 164  : 			}
; 165  : 		}
; 166  : 		return success;

	mov	al, BYTE PTR _success$[ebp]
$LN1@GetTypedVa:

; 167  : 
; 168  : 	}

	push	edx
	mov	ecx, ebp
	push	eax
	lea	edx, DWORD PTR $LN53@GetTypedVa
	call	@_RTC_CheckStackVars@8
	pop	eax
	pop	edx
	pop	edi
	pop	esi
	pop	ebx
	add	esp, 456				; 000001c8H
	cmp	ebp, esp
	call	__RTC_CheckEsp
	mov	esp, ebp
	pop	ebp
	ret	12					; 0000000cH
$LN53@GetTypedVa:
	DD	1
	DD	$LN52@GetTypedVa
$LN52@GetTypedVa:
	DD	-140					; ffffff74H
	DD	4
	DD	$LN51@GetTypedVa
$LN51@GetTypedVa:
	DB	116					; 00000074H
	DB	109					; 0000006dH
	DB	112					; 00000070H
	DB	0
?GetTypedValue@QbStruct@GH3@@QAE_NUQbKey@2@W4QbValueType@2@PAX@Z ENDP ; GH3::QbStruct::GetTypedValue
_TEXT	ENDS
; Function compile flags: /Odtp /RTCsu /ZI
; File c:\windows\fastgh3\plugins\code\gh3\qbstruct.cpp
;	COMDAT ??1QbStruct@GH3@@QAE@XZ
_TEXT	SEGMENT
_this$ = -8						; size = 4
??1QbStruct@GH3@@QAE@XZ PROC				; GH3::QbStruct::~QbStruct, COMDAT
; _this$ = ecx

; 18   : 	{

	push	ebp
	mov	ebp, esp
	sub	esp, 204				; 000000ccH
	push	ebx
	push	esi
	push	edi
	push	ecx
	lea	edi, DWORD PTR [ebp-204]
	mov	ecx, 51					; 00000033H
	mov	eax, -858993460				; ccccccccH
	rep stosd
	pop	ecx
	mov	DWORD PTR _this$[ebp], ecx

; 19   : 	}

	pop	edi
	pop	esi
	pop	ebx
	mov	esp, ebp
	pop	ebp
	ret	0
??1QbStruct@GH3@@QAE@XZ ENDP				; GH3::QbStruct::~QbStruct
_TEXT	ENDS
; Function compile flags: /Odtp /RTCsu /ZI
; File c:\windows\fastgh3\plugins\code\gh3\qbstruct.cpp
;	COMDAT ??0QbStruct@GH3@@QAE@PAUQbStructItem@1@@Z
_TEXT	SEGMENT
_this$ = -8						; size = 4
_itemChain$ = 8						; size = 4
??0QbStruct@GH3@@QAE@PAUQbStructItem@1@@Z PROC		; GH3::QbStruct::QbStruct, COMDAT
; _this$ = ecx

; 14   : 	{

	push	ebp
	mov	ebp, esp
	sub	esp, 204				; 000000ccH
	push	ebx
	push	esi
	push	edi
	push	ecx
	lea	edi, DWORD PTR [ebp-204]
	mov	ecx, 51					; 00000033H
	mov	eax, -858993460				; ccccccccH
	rep stosd
	pop	ecx
	mov	DWORD PTR _this$[ebp], ecx

; 13   : 	QbStruct::QbStruct(QbStructItem * itemChain) : unk0(0), unk2(1), unk3(0), first(itemChain)

	xor	eax, eax
	mov	ecx, DWORD PTR _this$[ebp]
	mov	WORD PTR [ecx], ax
	mov	eax, DWORD PTR _this$[ebp]
	mov	BYTE PTR [eax+2], 1
	mov	eax, DWORD PTR _this$[ebp]
	mov	BYTE PTR [eax+3], 0
	mov	eax, DWORD PTR _this$[ebp]
	mov	ecx, DWORD PTR _itemChain$[ebp]
	mov	DWORD PTR [eax+4], ecx

; 15   : 	}

	mov	eax, DWORD PTR _this$[ebp]
	pop	edi
	pop	esi
	pop	ebx
	mov	esp, ebp
	pop	ebp
	ret	4
??0QbStruct@GH3@@QAE@PAUQbStructItem@1@@Z ENDP		; GH3::QbStruct::QbStruct
_TEXT	ENDS
; Function compile flags: /Odtp /RTCsu /ZI
; File c:\windows\fastgh3\plugins\code\gh3\qbstruct.cpp
;	COMDAT ??0QbStruct@GH3@@QAE@XZ
_TEXT	SEGMENT
_this$ = -8						; size = 4
??0QbStruct@GH3@@QAE@XZ PROC				; GH3::QbStruct::QbStruct, COMDAT
; _this$ = ecx

; 10   : 	{

	push	ebp
	mov	ebp, esp
	sub	esp, 204				; 000000ccH
	push	ebx
	push	esi
	push	edi
	push	ecx
	lea	edi, DWORD PTR [ebp-204]
	mov	ecx, 51					; 00000033H
	mov	eax, -858993460				; ccccccccH
	rep stosd
	pop	ecx
	mov	DWORD PTR _this$[ebp], ecx

; 9    : 	QbStruct::QbStruct() : unk0(0), unk2(1), unk3(0), first(nullptr)

	xor	eax, eax
	mov	ecx, DWORD PTR _this$[ebp]
	mov	WORD PTR [ecx], ax
	mov	eax, DWORD PTR _this$[ebp]
	mov	BYTE PTR [eax+2], 1
	mov	eax, DWORD PTR _this$[ebp]
	mov	BYTE PTR [eax+3], 0
	mov	eax, DWORD PTR _this$[ebp]
	mov	DWORD PTR [eax+4], 0

; 11   : 	}

	mov	eax, DWORD PTR _this$[ebp]
	pop	edi
	pop	esi
	pop	ebx
	mov	esp, ebp
	pop	ebp
	ret	0
??0QbStruct@GH3@@QAE@XZ ENDP				; GH3::QbStruct::QbStruct
_TEXT	ENDS
; Function compile flags: /Odtp /RTCsu /ZI
;	COMDAT ??4QbStructItem@GH3@@QAEAAU01@$$QAU01@@Z
_TEXT	SEGMENT
_this$ = -8						; size = 4
___that$ = 8						; size = 4
??4QbStructItem@GH3@@QAEAAU01@$$QAU01@@Z PROC		; GH3::QbStructItem::operator=, COMDAT
; _this$ = ecx
	push	ebp
	mov	ebp, esp
	sub	esp, 204				; 000000ccH
	push	ebx
	push	esi
	push	edi
	push	ecx
	lea	edi, DWORD PTR [ebp-204]
	mov	ecx, 51					; 00000033H
	mov	eax, -858993460				; ccccccccH
	rep stosd
	pop	ecx
	mov	DWORD PTR _this$[ebp], ecx
	mov	eax, DWORD PTR _this$[ebp]
	mov	ecx, DWORD PTR ___that$[ebp]
	mov	dl, BYTE PTR [ecx]
	mov	BYTE PTR [eax], dl
	mov	eax, DWORD PTR _this$[ebp]
	mov	ecx, DWORD PTR ___that$[ebp]
	mov	dl, BYTE PTR [ecx+1]
	mov	BYTE PTR [eax+1], dl
	mov	eax, DWORD PTR _this$[ebp]
	mov	ecx, DWORD PTR ___that$[ebp]
	mov	dx, WORD PTR [ecx+2]
	mov	WORD PTR [eax+2], dx
	mov	eax, DWORD PTR _this$[ebp]
	mov	ecx, DWORD PTR ___that$[ebp]
	mov	edx, DWORD PTR [ecx+4]
	mov	DWORD PTR [eax+4], edx
	mov	eax, DWORD PTR _this$[ebp]
	mov	ecx, DWORD PTR ___that$[ebp]
	mov	edx, DWORD PTR [ecx+8]
	mov	DWORD PTR [eax+8], edx
	mov	eax, DWORD PTR _this$[ebp]
	mov	ecx, DWORD PTR ___that$[ebp]
	mov	edx, DWORD PTR [ecx+12]
	mov	DWORD PTR [eax+12], edx
	mov	eax, DWORD PTR _this$[ebp]
	pop	edi
	pop	esi
	pop	ebx
	mov	esp, ebp
	pop	ebp
	ret	4
??4QbStructItem@GH3@@QAEAAU01@$$QAU01@@Z ENDP		; GH3::QbStructItem::operator=
_TEXT	ENDS
; Function compile flags: /Odtp /RTCsu /ZI
;	COMDAT ??4QbStructItem@GH3@@QAEAAU01@ABU01@@Z
_TEXT	SEGMENT
_this$ = -8						; size = 4
___that$ = 8						; size = 4
??4QbStructItem@GH3@@QAEAAU01@ABU01@@Z PROC		; GH3::QbStructItem::operator=, COMDAT
; _this$ = ecx
	push	ebp
	mov	ebp, esp
	sub	esp, 204				; 000000ccH
	push	ebx
	push	esi
	push	edi
	push	ecx
	lea	edi, DWORD PTR [ebp-204]
	mov	ecx, 51					; 00000033H
	mov	eax, -858993460				; ccccccccH
	rep stosd
	pop	ecx
	mov	DWORD PTR _this$[ebp], ecx
	mov	eax, DWORD PTR ___that$[ebp]
	mov	ecx, DWORD PTR _this$[ebp]
	mov	edx, DWORD PTR [eax]
	mov	DWORD PTR [ecx], edx
	mov	edx, DWORD PTR [eax+4]
	mov	DWORD PTR [ecx+4], edx
	mov	edx, DWORD PTR [eax+8]
	mov	DWORD PTR [ecx+8], edx
	mov	eax, DWORD PTR [eax+12]
	mov	DWORD PTR [ecx+12], eax
	mov	eax, DWORD PTR _this$[ebp]
	pop	edi
	pop	esi
	pop	ebx
	mov	esp, ebp
	pop	ebp
	ret	4
??4QbStructItem@GH3@@QAEAAU01@ABU01@@Z ENDP		; GH3::QbStructItem::operator=
_TEXT	ENDS
; Function compile flags: /Odtp /RTCsu /ZI
; File c:\windows\fastgh3\plugins\code\gh3\qbstruct.cpp
;	COMDAT ??0QbStructItem@GH3@@QAE@W4QbNodeFlags@1@UQbKey@1@I@Z
_TEXT	SEGMENT
_this$ = -8						; size = 4
_aFlags$ = 8						; size = 1
_aKey$ = 12						; size = 4
_aValue$ = 16						; size = 4
??0QbStructItem@GH3@@QAE@W4QbNodeFlags@1@UQbKey@1@I@Z PROC ; GH3::QbStructItem::QbStructItem, COMDAT
; _this$ = ecx

; 344  : 	{

	push	ebp
	mov	ebp, esp
	sub	esp, 204				; 000000ccH
	push	ebx
	push	esi
	push	edi
	push	ecx
	lea	edi, DWORD PTR [ebp-204]
	mov	ecx, 51					; 00000033H
	mov	eax, -858993460				; ccccccccH
	rep stosd
	pop	ecx
	mov	DWORD PTR _this$[ebp], ecx

; 343  : 	QbStructItem::QbStructItem(QbNodeFlags aFlags, QbKey aKey, uint32_t aValue) : unkFlag0(0), flags(aFlags), word2(0), key(aKey), value(aValue), next(nullptr)

	mov	eax, DWORD PTR _this$[ebp]
	mov	BYTE PTR [eax], 0
	mov	eax, DWORD PTR _this$[ebp]
	mov	cl, BYTE PTR _aFlags$[ebp]
	mov	BYTE PTR [eax+1], cl
	xor	eax, eax
	mov	ecx, DWORD PTR _this$[ebp]
	mov	WORD PTR [ecx+2], ax
	lea	ecx, DWORD PTR _aKey$[ebp]
	call	??BQbKey@GH3@@QBEIXZ			; GH3::QbKey::operator unsigned int
	mov	ecx, DWORD PTR _this$[ebp]
	mov	DWORD PTR [ecx+4], eax
	mov	eax, DWORD PTR _this$[ebp]
	mov	ecx, DWORD PTR _aValue$[ebp]
	mov	DWORD PTR [eax+8], ecx
	mov	eax, DWORD PTR _this$[ebp]
	mov	DWORD PTR [eax+12], 0

; 345  : 	}

	mov	eax, DWORD PTR _this$[ebp]
	pop	edi
	pop	esi
	pop	ebx
	add	esp, 204				; 000000ccH
	cmp	ebp, esp
	call	__RTC_CheckEsp
	mov	esp, ebp
	pop	ebp
	ret	12					; 0000000cH
??0QbStructItem@GH3@@QAE@W4QbNodeFlags@1@UQbKey@1@I@Z ENDP ; GH3::QbStructItem::QbStructItem
_TEXT	ENDS
; Function compile flags: /Odtp /RTCsu /ZI
; File c:\windows\fastgh3\plugins\code\gh3\qbstruct.h
;	COMDAT ?Type@QbStructItem@GH3@@QAE?AW4QbValueType@2@XZ
_TEXT	SEGMENT
_this$ = -8						; size = 4
?Type@QbStructItem@GH3@@QAE?AW4QbValueType@2@XZ PROC	; GH3::QbStructItem::Type, COMDAT
; _this$ = ecx

; 47   : 		inline QbValueType Type() { return static_cast<QbValueType>(flags >> 1); }

	push	ebp
	mov	ebp, esp
	sub	esp, 204				; 000000ccH
	push	ebx
	push	esi
	push	edi
	push	ecx
	lea	edi, DWORD PTR [ebp-204]
	mov	ecx, 51					; 00000033H
	mov	eax, -858993460				; ccccccccH
	rep stosd
	pop	ecx
	mov	DWORD PTR _this$[ebp], ecx
	mov	eax, DWORD PTR _this$[ebp]
	movsx	eax, BYTE PTR [eax+1]
	sar	eax, 1
	pop	edi
	pop	esi
	pop	ebx
	mov	esp, ebp
	pop	ebp
	ret	0
?Type@QbStructItem@GH3@@QAE?AW4QbValueType@2@XZ ENDP	; GH3::QbStructItem::Type
_TEXT	ENDS
; Function compile flags: /Odtp /RTCsu /ZI
;	COMDAT ??4QbArray@GH3@@QAEAAU01@$$QAU01@@Z
_TEXT	SEGMENT
_this$ = -8						; size = 4
___that$ = 8						; size = 4
??4QbArray@GH3@@QAEAAU01@$$QAU01@@Z PROC		; GH3::QbArray::operator=, COMDAT
; _this$ = ecx
	push	ebp
	mov	ebp, esp
	sub	esp, 204				; 000000ccH
	push	ebx
	push	esi
	push	edi
	push	ecx
	lea	edi, DWORD PTR [ebp-204]
	mov	ecx, 51					; 00000033H
	mov	eax, -858993460				; ccccccccH
	rep stosd
	pop	ecx
	mov	DWORD PTR _this$[ebp], ecx
	mov	eax, DWORD PTR _this$[ebp]
	mov	ecx, DWORD PTR ___that$[ebp]
	mov	dl, BYTE PTR [ecx]
	mov	BYTE PTR [eax], dl
	mov	eax, DWORD PTR _this$[ebp]
	mov	ecx, DWORD PTR ___that$[ebp]
	mov	dl, BYTE PTR [ecx+1]
	mov	BYTE PTR [eax+1], dl
	mov	eax, DWORD PTR _this$[ebp]
	mov	ecx, DWORD PTR ___that$[ebp]
	mov	dl, BYTE PTR [ecx+2]
	mov	BYTE PTR [eax+2], dl
	mov	eax, DWORD PTR _this$[ebp]
	mov	ecx, DWORD PTR ___that$[ebp]
	mov	dl, BYTE PTR [ecx+3]
	mov	BYTE PTR [eax+3], dl
	mov	eax, DWORD PTR _this$[ebp]
	mov	ecx, DWORD PTR ___that$[ebp]
	mov	edx, DWORD PTR [ecx+4]
	mov	DWORD PTR [eax+4], edx
	mov	eax, DWORD PTR _this$[ebp]
	mov	ecx, DWORD PTR ___that$[ebp]
	mov	edx, DWORD PTR [ecx+8]
	mov	DWORD PTR [eax+8], edx
	mov	eax, DWORD PTR _this$[ebp]
	pop	edi
	pop	esi
	pop	ebx
	mov	esp, ebp
	pop	ebp
	ret	4
??4QbArray@GH3@@QAEAAU01@$$QAU01@@Z ENDP		; GH3::QbArray::operator=
_TEXT	ENDS
; Function compile flags: /Odtp /RTCsu /ZI
;	COMDAT ??4QbArray@GH3@@QAEAAU01@ABU01@@Z
_TEXT	SEGMENT
_this$ = -8						; size = 4
___that$ = 8						; size = 4
??4QbArray@GH3@@QAEAAU01@ABU01@@Z PROC			; GH3::QbArray::operator=, COMDAT
; _this$ = ecx
	push	ebp
	mov	ebp, esp
	sub	esp, 204				; 000000ccH
	push	ebx
	push	esi
	push	edi
	push	ecx
	lea	edi, DWORD PTR [ebp-204]
	mov	ecx, 51					; 00000033H
	mov	eax, -858993460				; ccccccccH
	rep stosd
	pop	ecx
	mov	DWORD PTR _this$[ebp], ecx
	mov	eax, DWORD PTR ___that$[ebp]
	mov	ecx, DWORD PTR _this$[ebp]
	mov	edx, DWORD PTR [eax]
	mov	DWORD PTR [ecx], edx
	mov	edx, DWORD PTR [eax+4]
	mov	DWORD PTR [ecx+4], edx
	mov	eax, DWORD PTR [eax+8]
	mov	DWORD PTR [ecx+8], eax
	mov	eax, DWORD PTR _this$[ebp]
	pop	edi
	pop	esi
	pop	ebx
	mov	esp, ebp
	pop	ebp
	ret	4
??4QbArray@GH3@@QAEAAU01@ABU01@@Z ENDP			; GH3::QbArray::operator=
_TEXT	ENDS
; Function compile flags: /Odtp /RTCsu /ZI
; File c:\windows\fastgh3\plugins\code\gh3\qbarray.h
;	COMDAT ?Length@QbArray@GH3@@QBEIXZ
_TEXT	SEGMENT
_this$ = -8						; size = 4
?Length@QbArray@GH3@@QBEIXZ PROC			; GH3::QbArray::Length, COMDAT
; _this$ = ecx

; 35   : 		inline uint32_t Length() const { return m_length;}

	push	ebp
	mov	ebp, esp
	sub	esp, 204				; 000000ccH
	push	ebx
	push	esi
	push	edi
	push	ecx
	lea	edi, DWORD PTR [ebp-204]
	mov	ecx, 51					; 00000033H
	mov	eax, -858993460				; ccccccccH
	rep stosd
	pop	ecx
	mov	DWORD PTR _this$[ebp], ecx
	mov	eax, DWORD PTR _this$[ebp]
	mov	eax, DWORD PTR [eax+4]
	pop	edi
	pop	esi
	pop	ebx
	mov	esp, ebp
	pop	ebp
	ret	0
?Length@QbArray@GH3@@QBEIXZ ENDP			; GH3::QbArray::Length
_TEXT	ENDS
; Function compile flags: /Odtp /RTCsu /ZI
; File c:\windows\fastgh3\plugins\code\gh3\qbarray.h
;	COMDAT ?Type@QbArray@GH3@@QBE?AW4QbValueType@2@XZ
_TEXT	SEGMENT
_this$ = -8						; size = 4
?Type@QbArray@GH3@@QBE?AW4QbValueType@2@XZ PROC		; GH3::QbArray::Type, COMDAT
; _this$ = ecx

; 34   : 		inline QbValueType Type() const { return m_type;}

	push	ebp
	mov	ebp, esp
	sub	esp, 204				; 000000ccH
	push	ebx
	push	esi
	push	edi
	push	ecx
	lea	edi, DWORD PTR [ebp-204]
	mov	ecx, 51					; 00000033H
	mov	eax, -858993460				; ccccccccH
	rep stosd
	pop	ecx
	mov	DWORD PTR _this$[ebp], ecx
	mov	eax, DWORD PTR _this$[ebp]
	mov	al, BYTE PTR [eax+2]
	pop	edi
	pop	esi
	pop	ebx
	mov	esp, ebp
	pop	ebp
	ret	0
?Type@QbArray@GH3@@QBE?AW4QbValueType@2@XZ ENDP		; GH3::QbArray::Type
_TEXT	ENDS
; Function compile flags: /Odtp /RTCsu /ZI
; File c:\windows\fastgh3\plugins\code\gh3\qbarray.h
;	COMDAT ?SetType@QbArray@GH3@@QAEXW4QbValueType@2@@Z
_TEXT	SEGMENT
_this$ = -8						; size = 4
_type$ = 8						; size = 1
?SetType@QbArray@GH3@@QAEXW4QbValueType@2@@Z PROC	; GH3::QbArray::SetType, COMDAT
; _this$ = ecx

; 33   : 		inline void SetType(QbValueType type) { m_type = type; }

	push	ebp
	mov	ebp, esp
	sub	esp, 204				; 000000ccH
	push	ebx
	push	esi
	push	edi
	push	ecx
	lea	edi, DWORD PTR [ebp-204]
	mov	ecx, 51					; 00000033H
	mov	eax, -858993460				; ccccccccH
	rep stosd
	pop	ecx
	mov	DWORD PTR _this$[ebp], ecx
	mov	eax, DWORD PTR _this$[ebp]
	mov	cl, BYTE PTR _type$[ebp]
	mov	BYTE PTR [eax+2], cl
	pop	edi
	pop	esi
	pop	ebx
	mov	esp, ebp
	pop	ebp
	ret	4
?SetType@QbArray@GH3@@QAEXW4QbValueType@2@@Z ENDP	; GH3::QbArray::SetType
_TEXT	ENDS
; Function compile flags: /Odtp /RTCsu /ZI
; File c:\windows\fastgh3\plugins\code\gh3\qbarray.h
;	COMDAT ?Get@QbArray@GH3@@QBEIH@Z
_TEXT	SEGMENT
_this$ = -8						; size = 4
_index$ = 8						; size = 4
?Get@QbArray@GH3@@QBEIH@Z PROC				; GH3::QbArray::Get, COMDAT
; _this$ = ecx

; 31   : 		inline uint32_t Get(int index) const { return (*this)[index]; }

	push	ebp
	mov	ebp, esp
	sub	esp, 204				; 000000ccH
	push	ebx
	push	esi
	push	edi
	push	ecx
	lea	edi, DWORD PTR [ebp-204]
	mov	ecx, 51					; 00000033H
	mov	eax, -858993460				; ccccccccH
	rep stosd
	pop	ecx
	mov	DWORD PTR _this$[ebp], ecx
	mov	eax, DWORD PTR _index$[ebp]
	push	eax
	mov	ecx, DWORD PTR _this$[ebp]
	call	??AQbArray@GH3@@QBEIH@Z			; GH3::QbArray::operator[]
	pop	edi
	pop	esi
	pop	ebx
	add	esp, 204				; 000000ccH
	cmp	ebp, esp
	call	__RTC_CheckEsp
	mov	esp, ebp
	pop	ebp
	ret	4
?Get@QbArray@GH3@@QBEIH@Z ENDP				; GH3::QbArray::Get
_TEXT	ENDS
; Function compile flags: /Odtp /RTCsu /ZI
; File c:\windows\fastgh3\plugins\code\gh3\qbarray.h
;	COMDAT ?Set@QbArray@GH3@@QAEXHI@Z
_TEXT	SEGMENT
_this$ = -8						; size = 4
_index$ = 8						; size = 4
_value$ = 12						; size = 4
?Set@QbArray@GH3@@QAEXHI@Z PROC				; GH3::QbArray::Set, COMDAT
; _this$ = ecx

; 30   : 		inline void Set(int index, uint32_t value) { (*this)[index] = value; }

	push	ebp
	mov	ebp, esp
	sub	esp, 204				; 000000ccH
	push	ebx
	push	esi
	push	edi
	push	ecx
	lea	edi, DWORD PTR [ebp-204]
	mov	ecx, 51					; 00000033H
	mov	eax, -858993460				; ccccccccH
	rep stosd
	pop	ecx
	mov	DWORD PTR _this$[ebp], ecx
	mov	eax, DWORD PTR _index$[ebp]
	push	eax
	mov	ecx, DWORD PTR _this$[ebp]
	call	??AQbArray@GH3@@QAEAAIH@Z		; GH3::QbArray::operator[]
	mov	ecx, DWORD PTR _value$[ebp]
	mov	DWORD PTR [eax], ecx
	pop	edi
	pop	esi
	pop	ebx
	add	esp, 204				; 000000ccH
	cmp	ebp, esp
	call	__RTC_CheckEsp
	mov	esp, ebp
	pop	ebp
	ret	8
?Set@QbArray@GH3@@QAEXHI@Z ENDP				; GH3::QbArray::Set
_TEXT	ENDS
; Function compile flags: /Odtp /RTCsu /ZI
;	COMDAT ??4QbVector@GH3@@QAEAAU01@$$QAU01@@Z
_TEXT	SEGMENT
_$S2$1 = -20						; size = 4
_this$ = -8						; size = 4
___that$ = 8						; size = 4
??4QbVector@GH3@@QAEAAU01@$$QAU01@@Z PROC		; GH3::QbVector::operator=, COMDAT
; _this$ = ecx
	push	ebp
	mov	ebp, esp
	sub	esp, 216				; 000000d8H
	push	ebx
	push	esi
	push	edi
	push	ecx
	lea	edi, DWORD PTR [ebp-216]
	mov	ecx, 54					; 00000036H
	mov	eax, -858993460				; ccccccccH
	rep stosd
	pop	ecx
	mov	DWORD PTR _this$[ebp], ecx
	mov	DWORD PTR _$S2$1[ebp], 0
	jmp	SHORT $LN4@operator
$LN2@operator:
	mov	eax, DWORD PTR _$S2$1[ebp]
	add	eax, 1
	mov	DWORD PTR _$S2$1[ebp], eax
$LN4@operator:
	cmp	DWORD PTR _$S2$1[ebp], 1
	jae	SHORT $LN3@operator
	mov	eax, DWORD PTR _this$[ebp]
	add	eax, DWORD PTR _$S2$1[ebp]
	mov	ecx, DWORD PTR ___that$[ebp]
	add	ecx, DWORD PTR _$S2$1[ebp]
	mov	dl, BYTE PTR [ecx]
	mov	BYTE PTR [eax], dl
	jmp	SHORT $LN2@operator
$LN3@operator:
	mov	eax, DWORD PTR _this$[ebp]
	mov	ecx, DWORD PTR ___that$[ebp]
	mov	dl, BYTE PTR [ecx+1]
	mov	BYTE PTR [eax+1], dl
	mov	eax, DWORD PTR _this$[ebp]
	mov	ecx, DWORD PTR ___that$[ebp]
	mov	edx, DWORD PTR [ecx+4]
	mov	DWORD PTR [eax+4], edx
	mov	eax, DWORD PTR _this$[ebp]
	mov	ecx, DWORD PTR ___that$[ebp]
	mov	edx, DWORD PTR [ecx+8]
	mov	DWORD PTR [eax+8], edx
	mov	eax, DWORD PTR _this$[ebp]
	mov	ecx, DWORD PTR ___that$[ebp]
	mov	edx, DWORD PTR [ecx+12]
	mov	DWORD PTR [eax+12], edx
	mov	eax, DWORD PTR _this$[ebp]
	pop	edi
	pop	esi
	pop	ebx
	mov	esp, ebp
	pop	ebp
	ret	4
??4QbVector@GH3@@QAEAAU01@$$QAU01@@Z ENDP		; GH3::QbVector::operator=
_TEXT	ENDS
; Function compile flags: /Odtp /RTCsu /ZI
;	COMDAT ??4QbVector@GH3@@QAEAAU01@ABU01@@Z
_TEXT	SEGMENT
_this$ = -8						; size = 4
___that$ = 8						; size = 4
??4QbVector@GH3@@QAEAAU01@ABU01@@Z PROC			; GH3::QbVector::operator=, COMDAT
; _this$ = ecx
	push	ebp
	mov	ebp, esp
	sub	esp, 204				; 000000ccH
	push	ebx
	push	esi
	push	edi
	push	ecx
	lea	edi, DWORD PTR [ebp-204]
	mov	ecx, 51					; 00000033H
	mov	eax, -858993460				; ccccccccH
	rep stosd
	pop	ecx
	mov	DWORD PTR _this$[ebp], ecx
	mov	eax, DWORD PTR ___that$[ebp]
	mov	ecx, DWORD PTR _this$[ebp]
	mov	edx, DWORD PTR [eax]
	mov	DWORD PTR [ecx], edx
	mov	edx, DWORD PTR [eax+4]
	mov	DWORD PTR [ecx+4], edx
	mov	edx, DWORD PTR [eax+8]
	mov	DWORD PTR [ecx+8], edx
	mov	eax, DWORD PTR [eax+12]
	mov	DWORD PTR [ecx+12], eax
	mov	eax, DWORD PTR _this$[ebp]
	pop	edi
	pop	esi
	pop	ebx
	mov	esp, ebp
	pop	ebp
	ret	4
??4QbVector@GH3@@QAEAAU01@ABU01@@Z ENDP			; GH3::QbVector::operator=
_TEXT	ENDS
; Function compile flags: /Odtp /RTCsu /ZI
;	COMDAT ??4QbPair@GH3@@QAEAAU01@$$QAU01@@Z
_TEXT	SEGMENT
_$S1$1 = -20						; size = 4
_this$ = -8						; size = 4
___that$ = 8						; size = 4
??4QbPair@GH3@@QAEAAU01@$$QAU01@@Z PROC			; GH3::QbPair::operator=, COMDAT
; _this$ = ecx
	push	ebp
	mov	ebp, esp
	sub	esp, 216				; 000000d8H
	push	ebx
	push	esi
	push	edi
	push	ecx
	lea	edi, DWORD PTR [ebp-216]
	mov	ecx, 54					; 00000036H
	mov	eax, -858993460				; ccccccccH
	rep stosd
	pop	ecx
	mov	DWORD PTR _this$[ebp], ecx
	mov	DWORD PTR _$S1$1[ebp], 0
	jmp	SHORT $LN4@operator
$LN2@operator:
	mov	eax, DWORD PTR _$S1$1[ebp]
	add	eax, 1
	mov	DWORD PTR _$S1$1[ebp], eax
$LN4@operator:
	cmp	DWORD PTR _$S1$1[ebp], 1
	jae	SHORT $LN3@operator
	mov	eax, DWORD PTR _this$[ebp]
	add	eax, DWORD PTR _$S1$1[ebp]
	mov	ecx, DWORD PTR ___that$[ebp]
	add	ecx, DWORD PTR _$S1$1[ebp]
	mov	dl, BYTE PTR [ecx]
	mov	BYTE PTR [eax], dl
	jmp	SHORT $LN2@operator
$LN3@operator:
	mov	eax, DWORD PTR _this$[ebp]
	mov	ecx, DWORD PTR ___that$[ebp]
	mov	dl, BYTE PTR [ecx+1]
	mov	BYTE PTR [eax+1], dl
	mov	eax, DWORD PTR _this$[ebp]
	mov	ecx, DWORD PTR ___that$[ebp]
	mov	edx, DWORD PTR [ecx+4]
	mov	DWORD PTR [eax+4], edx
	mov	eax, DWORD PTR _this$[ebp]
	mov	ecx, DWORD PTR ___that$[ebp]
	mov	edx, DWORD PTR [ecx+8]
	mov	DWORD PTR [eax+8], edx
	mov	eax, DWORD PTR _this$[ebp]
	pop	edi
	pop	esi
	pop	ebx
	mov	esp, ebp
	pop	ebp
	ret	4
??4QbPair@GH3@@QAEAAU01@$$QAU01@@Z ENDP			; GH3::QbPair::operator=
_TEXT	ENDS
; Function compile flags: /Odtp /RTCsu /ZI
;	COMDAT ??4QbPair@GH3@@QAEAAU01@ABU01@@Z
_TEXT	SEGMENT
_this$ = -8						; size = 4
___that$ = 8						; size = 4
??4QbPair@GH3@@QAEAAU01@ABU01@@Z PROC			; GH3::QbPair::operator=, COMDAT
; _this$ = ecx
	push	ebp
	mov	ebp, esp
	sub	esp, 204				; 000000ccH
	push	ebx
	push	esi
	push	edi
	push	ecx
	lea	edi, DWORD PTR [ebp-204]
	mov	ecx, 51					; 00000033H
	mov	eax, -858993460				; ccccccccH
	rep stosd
	pop	ecx
	mov	DWORD PTR _this$[ebp], ecx
	mov	eax, DWORD PTR ___that$[ebp]
	mov	ecx, DWORD PTR _this$[ebp]
	mov	edx, DWORD PTR [eax]
	mov	DWORD PTR [ecx], edx
	mov	edx, DWORD PTR [eax+4]
	mov	DWORD PTR [ecx+4], edx
	mov	eax, DWORD PTR [eax+8]
	mov	DWORD PTR [ecx+8], eax
	mov	eax, DWORD PTR _this$[ebp]
	pop	edi
	pop	esi
	pop	ebx
	mov	esp, ebp
	pop	ebp
	ret	4
??4QbPair@GH3@@QAEAAU01@ABU01@@Z ENDP			; GH3::QbPair::operator=
_TEXT	ENDS
; Function compile flags: /Odtp /RTCsu /ZI
;	COMDAT ??4QbKey@GH3@@QAEAAU01@ABU01@@Z
_TEXT	SEGMENT
_this$ = -8						; size = 4
___that$ = 8						; size = 4
??4QbKey@GH3@@QAEAAU01@ABU01@@Z PROC			; GH3::QbKey::operator=, COMDAT
; _this$ = ecx
	push	ebp
	mov	ebp, esp
	sub	esp, 204				; 000000ccH
	push	ebx
	push	esi
	push	edi
	push	ecx
	lea	edi, DWORD PTR [ebp-204]
	mov	ecx, 51					; 00000033H
	mov	eax, -858993460				; ccccccccH
	rep stosd
	pop	ecx
	mov	DWORD PTR _this$[ebp], ecx
	mov	eax, DWORD PTR ___that$[ebp]
	mov	ecx, DWORD PTR [eax]
	mov	edx, DWORD PTR _this$[ebp]
	mov	DWORD PTR [edx], ecx
	mov	eax, DWORD PTR _this$[ebp]
	pop	edi
	pop	esi
	pop	ebx
	mov	esp, ebp
	pop	ebp
	ret	4
??4QbKey@GH3@@QAEAAU01@ABU01@@Z ENDP			; GH3::QbKey::operator=
_TEXT	ENDS
; Function compile flags: /Odtp /RTCsu /ZI
; File c:\windows\fastgh3\plugins\code\gh3\qbkey.h
;	COMDAT ??4QbKey@GH3@@QAEAAU01@I@Z
_TEXT	SEGMENT
_this$ = -8						; size = 4
_rhs$ = 8						; size = 4
??4QbKey@GH3@@QAEAAU01@I@Z PROC				; GH3::QbKey::operator=, COMDAT
; _this$ = ecx

; 111  : 		inline QbKey& operator=(const uint32_t rhs) { m_key = rhs; return *this; };

	push	ebp
	mov	ebp, esp
	sub	esp, 204				; 000000ccH
	push	ebx
	push	esi
	push	edi
	push	ecx
	lea	edi, DWORD PTR [ebp-204]
	mov	ecx, 51					; 00000033H
	mov	eax, -858993460				; ccccccccH
	rep stosd
	pop	ecx
	mov	DWORD PTR _this$[ebp], ecx
	mov	eax, DWORD PTR _this$[ebp]
	mov	ecx, DWORD PTR _rhs$[ebp]
	mov	DWORD PTR [eax], ecx
	mov	eax, DWORD PTR _this$[ebp]
	pop	edi
	pop	esi
	pop	ebx
	mov	esp, ebp
	pop	ebp
	ret	4
??4QbKey@GH3@@QAEAAU01@I@Z ENDP				; GH3::QbKey::operator=
_TEXT	ENDS
; Function compile flags: /Odtp /RTCsu /ZI
; File c:\windows\fastgh3\plugins\code\gh3\qbkey.h
;	COMDAT ??BQbKey@GH3@@QBEIXZ
_TEXT	SEGMENT
_this$ = -8						; size = 4
??BQbKey@GH3@@QBEIXZ PROC				; GH3::QbKey::operator unsigned int, COMDAT
; _this$ = ecx

; 108  : 		inline constexpr operator uint32_t() const { return m_key; }

	push	ebp
	mov	ebp, esp
	sub	esp, 204				; 000000ccH
	push	ebx
	push	esi
	push	edi
	push	ecx
	lea	edi, DWORD PTR [ebp-204]
	mov	ecx, 51					; 00000033H
	mov	eax, -858993460				; ccccccccH
	rep stosd
	pop	ecx
	mov	DWORD PTR _this$[ebp], ecx
	mov	eax, DWORD PTR _this$[ebp]
	mov	eax, DWORD PTR [eax]
	pop	edi
	pop	esi
	pop	ebx
	mov	esp, ebp
	pop	ebp
	ret	0
??BQbKey@GH3@@QBEIXZ ENDP				; GH3::QbKey::operator unsigned int
_TEXT	ENDS
; Function compile flags: /Odtp /RTCsu /ZI
; File c:\windows\fastgh3\plugins\code\gh3\qbkey.h
;	COMDAT ??0QbKey@GH3@@QAE@PBD@Z
_TEXT	SEGMENT
_this$ = -8						; size = 4
_key$ = 8						; size = 4
??0QbKey@GH3@@QAE@PBD@Z PROC				; GH3::QbKey::QbKey, COMDAT
; _this$ = ecx

; 105  : 		constexpr QbKey(const char *key) : m_key(crc32::hash(key)) {};

	push	ebp
	mov	ebp, esp
	sub	esp, 204				; 000000ccH
	push	ebx
	push	esi
	push	edi
	push	ecx
	lea	edi, DWORD PTR [ebp-204]
	mov	ecx, 51					; 00000033H
	mov	eax, -858993460				; ccccccccH
	rep stosd
	pop	ecx
	mov	DWORD PTR _this$[ebp], ecx
	push	-1
	mov	eax, DWORD PTR _key$[ebp]
	push	eax
	call	?hash@crc32@GH3@@YAIPBDI@Z		; GH3::crc32::hash
	add	esp, 8
	mov	ecx, DWORD PTR _this$[ebp]
	mov	DWORD PTR [ecx], eax
	mov	eax, DWORD PTR _this$[ebp]
	pop	edi
	pop	esi
	pop	ebx
	add	esp, 204				; 000000ccH
	cmp	ebp, esp
	call	__RTC_CheckEsp
	mov	esp, ebp
	pop	ebp
	ret	4
??0QbKey@GH3@@QAE@PBD@Z ENDP				; GH3::QbKey::QbKey
_TEXT	ENDS
; Function compile flags: /Odtp /RTCsu /ZI
; File c:\windows\fastgh3\plugins\code\gh3\qbkey.h
;	COMDAT ??0QbKey@GH3@@QAE@I@Z
_TEXT	SEGMENT
_this$ = -8						; size = 4
_key$ = 8						; size = 4
??0QbKey@GH3@@QAE@I@Z PROC				; GH3::QbKey::QbKey, COMDAT
; _this$ = ecx

; 102  : 		constexpr QbKey(const uint32_t key) : m_key(key) {};

	push	ebp
	mov	ebp, esp
	sub	esp, 204				; 000000ccH
	push	ebx
	push	esi
	push	edi
	push	ecx
	lea	edi, DWORD PTR [ebp-204]
	mov	ecx, 51					; 00000033H
	mov	eax, -858993460				; ccccccccH
	rep stosd
	pop	ecx
	mov	DWORD PTR _this$[ebp], ecx
	mov	eax, DWORD PTR _this$[ebp]
	mov	ecx, DWORD PTR _key$[ebp]
	mov	DWORD PTR [eax], ecx
	mov	eax, DWORD PTR _this$[ebp]
	pop	edi
	pop	esi
	pop	ebx
	mov	esp, ebp
	pop	ebp
	ret	4
??0QbKey@GH3@@QAE@I@Z ENDP				; GH3::QbKey::QbKey
_TEXT	ENDS
; Function compile flags: /Odtp /RTCsu /ZI
; File c:\windows\fastgh3\plugins\code\gh3\qbkey.h
;	COMDAT ??0QbKey@GH3@@QAE@ABU01@@Z
_TEXT	SEGMENT
_this$ = -8						; size = 4
_rhs$ = 8						; size = 4
??0QbKey@GH3@@QAE@ABU01@@Z PROC				; GH3::QbKey::QbKey, COMDAT
; _this$ = ecx

; 99   : 		constexpr QbKey(const QbKey &rhs) : m_key(rhs.m_key) {};

	push	ebp
	mov	ebp, esp
	sub	esp, 204				; 000000ccH
	push	ebx
	push	esi
	push	edi
	push	ecx
	lea	edi, DWORD PTR [ebp-204]
	mov	ecx, 51					; 00000033H
	mov	eax, -858993460				; ccccccccH
	rep stosd
	pop	ecx
	mov	DWORD PTR _this$[ebp], ecx
	mov	eax, DWORD PTR _this$[ebp]
	mov	ecx, DWORD PTR _rhs$[ebp]
	mov	edx, DWORD PTR [ecx]
	mov	DWORD PTR [eax], edx
	mov	eax, DWORD PTR _this$[ebp]
	pop	edi
	pop	esi
	pop	ebx
	mov	esp, ebp
	pop	ebp
	ret	4
??0QbKey@GH3@@QAE@ABU01@@Z ENDP				; GH3::QbKey::QbKey
_TEXT	ENDS
; Function compile flags: /Odtp /RTCsu /ZI
; File c:\windows\fastgh3\plugins\code\gh3\qbkey.h
;	COMDAT ??0QbKey@GH3@@QAE@XZ
_TEXT	SEGMENT
_this$ = -8						; size = 4
??0QbKey@GH3@@QAE@XZ PROC				; GH3::QbKey::QbKey, COMDAT
; _this$ = ecx

; 97   : 		constexpr QbKey() : m_key(0) {};

	push	ebp
	mov	ebp, esp
	sub	esp, 204				; 000000ccH
	push	ebx
	push	esi
	push	edi
	push	ecx
	lea	edi, DWORD PTR [ebp-204]
	mov	ecx, 51					; 00000033H
	mov	eax, -858993460				; ccccccccH
	rep stosd
	pop	ecx
	mov	DWORD PTR _this$[ebp], ecx
	mov	eax, DWORD PTR _this$[ebp]
	mov	DWORD PTR [eax], 0
	mov	eax, DWORD PTR _this$[ebp]
	pop	edi
	pop	esi
	pop	ebx
	mov	esp, ebp
	pop	ebp
	ret	0
??0QbKey@GH3@@QAE@XZ ENDP				; GH3::QbKey::QbKey
_TEXT	ENDS
; Function compile flags: /Odtp /RTCsu /ZI
; File c:\windows\fastgh3\plugins\code\gh3\qbkey.h
;	COMDAT ?hash@crc32@GH3@@YAIPBDI@Z
_TEXT	SEGMENT
tv74 = -200						; size = 4
tv75 = -196						; size = 4
_key$ = 8						; size = 4
_previousKey$ = 12					; size = 4
?hash@crc32@GH3@@YAIPBDI@Z PROC				; GH3::crc32::hash, COMDAT

; 76   : 		{

	push	ebp
	mov	ebp, esp
	sub	esp, 200				; 000000c8H
	push	ebx
	push	esi
	push	edi
	lea	edi, DWORD PTR [ebp-200]
	mov	ecx, 50					; 00000032H
	mov	eax, -858993460				; ccccccccH
	rep stosd

; 77   : 			return	(!key) ? 0 :

	cmp	DWORD PTR _key$[ebp], 0
	jne	SHORT $LN5@hash
	mov	DWORD PTR tv75[ebp], 0
	jmp	SHORT $LN6@hash
$LN5@hash:
	mov	eax, DWORD PTR _key$[ebp]
	movsx	ecx, BYTE PTR [eax]
	test	ecx, ecx
	jne	SHORT $LN3@hash
	mov	edx, DWORD PTR _previousKey$[ebp]
	mov	DWORD PTR tv74[ebp], edx
	jmp	SHORT $LN4@hash
$LN3@hash:
	mov	eax, DWORD PTR _previousKey$[ebp]
	push	eax
	mov	ecx, DWORD PTR _key$[ebp]
	movzx	edx, BYTE PTR [ecx]
	push	edx
	call	?hashChar@crc32@GH3@@YAIDI@Z		; GH3::crc32::hashChar
	add	esp, 8
	push	eax
	mov	eax, DWORD PTR _key$[ebp]
	add	eax, 1
	push	eax
	call	?hash@crc32@GH3@@YAIPBDI@Z		; GH3::crc32::hash
	add	esp, 8
	mov	DWORD PTR tv74[ebp], eax
$LN4@hash:
	mov	ecx, DWORD PTR tv74[ebp]
	mov	DWORD PTR tv75[ebp], ecx
$LN6@hash:
	mov	eax, DWORD PTR tv75[ebp]

; 78   : 					(*key == '\0') ? previousKey :
; 79   : 					(hash(key + 1, hashChar(*key, previousKey)));
; 80   : 		}

	pop	edi
	pop	esi
	pop	ebx
	add	esp, 200				; 000000c8H
	cmp	ebp, esp
	call	__RTC_CheckEsp
	mov	esp, ebp
	pop	ebp
	ret	0
?hash@crc32@GH3@@YAIPBDI@Z ENDP				; GH3::crc32::hash
_TEXT	ENDS
; Function compile flags: /Odtp /RTCsu /ZI
; File c:\windows\fastgh3\plugins\code\gh3\qbkey.h
;	COMDAT ?hashChar@crc32@GH3@@YAIDI@Z
_TEXT	SEGMENT
_c$ = 8							; size = 1
_crc$ = 12						; size = 4
?hashChar@crc32@GH3@@YAIDI@Z PROC			; GH3::crc32::hashChar, COMDAT

; 71   : 		{

	push	ebp
	mov	ebp, esp
	sub	esp, 192				; 000000c0H
	push	ebx
	push	esi
	push	edi
	lea	edi, DWORD PTR [ebp-192]
	mov	ecx, 48					; 00000030H
	mov	eax, -858993460				; ccccccccH
	rep stosd

; 72   : 			return tab[(crc ^ fixChar(c)) & 0xFF] ^ (crc >> 8);

	movzx	eax, BYTE PTR _c$[ebp]
	push	eax
	call	?fixChar@crc32@GH3@@YADD@Z		; GH3::crc32::fixChar
	add	esp, 4
	movsx	ecx, al
	xor	ecx, DWORD PTR _crc$[ebp]
	and	ecx, 255				; 000000ffH
	mov	eax, DWORD PTR _crc$[ebp]
	shr	eax, 8
	xor	eax, DWORD PTR ?tab@crc32@GH3@@3QBIB[ecx*4]

; 73   : 		}

	pop	edi
	pop	esi
	pop	ebx
	add	esp, 192				; 000000c0H
	cmp	ebp, esp
	call	__RTC_CheckEsp
	mov	esp, ebp
	pop	ebp
	ret	0
?hashChar@crc32@GH3@@YAIDI@Z ENDP			; GH3::crc32::hashChar
_TEXT	ENDS
; Function compile flags: /Odtp /RTCsu /ZI
; File c:\windows\fastgh3\plugins\code\gh3\qbkey.h
;	COMDAT ?fixChar@crc32@GH3@@YADD@Z
_TEXT	SEGMENT
tv72 = -197						; size = 1
tv74 = -196						; size = 4
_c$ = 8							; size = 1
?fixChar@crc32@GH3@@YADD@Z PROC				; GH3::crc32::fixChar, COMDAT

; 64   : 		{

	push	ebp
	mov	ebp, esp
	sub	esp, 200				; 000000c8H
	push	ebx
	push	esi
	push	edi
	lea	edi, DWORD PTR [ebp-200]
	mov	ecx, 50					; 00000032H
	mov	eax, -858993460				; ccccccccH
	rep stosd

; 65   : 			return	(c >= 'A' && c <= 'Z') ? (c + 32) :

	movsx	eax, BYTE PTR _c$[ebp]
	cmp	eax, 65					; 00000041H
	jl	SHORT $LN3@fixChar
	movsx	ecx, BYTE PTR _c$[ebp]
	cmp	ecx, 90					; 0000005aH
	jg	SHORT $LN3@fixChar
	movsx	edx, BYTE PTR _c$[ebp]
	add	edx, 32					; 00000020H
	mov	DWORD PTR tv74[ebp], edx
	jmp	SHORT $LN6@fixChar
$LN3@fixChar:
	movsx	eax, BYTE PTR _c$[ebp]
	cmp	eax, 47					; 0000002fH
	jne	SHORT $LN4@fixChar
	mov	BYTE PTR tv72[ebp], 92			; 0000005cH
	jmp	SHORT $LN5@fixChar
$LN4@fixChar:
	mov	cl, BYTE PTR _c$[ebp]
	mov	BYTE PTR tv72[ebp], cl
$LN5@fixChar:
	movsx	edx, BYTE PTR tv72[ebp]
	mov	DWORD PTR tv74[ebp], edx
$LN6@fixChar:
	mov	al, BYTE PTR tv74[ebp]

; 66   : 				(c == '/') ? '\\' :
; 67   : 				c;
; 68   : 		}

	pop	edi
	pop	esi
	pop	ebx
	mov	esp, ebp
	pop	ebp
	ret	0
?fixChar@crc32@GH3@@YADD@Z ENDP				; GH3::crc32::fixChar
_TEXT	ENDS
END
